	.cpu cortex-m4
	.eabi_attribute 27, 1
	.eabi_attribute 28, 1
	.eabi_attribute 20, 1
	.eabi_attribute 21, 1
	.eabi_attribute 23, 3
	.eabi_attribute 24, 1
	.eabi_attribute 25, 1
	.eabi_attribute 26, 1
	.eabi_attribute 30, 4
	.eabi_attribute 34, 1
	.eabi_attribute 18, 4
	.file	"pb_decode.c"
	.text
.Ltext0:
	.section	.text.buf_read,"ax",%progbits
	.align	1
	.syntax unified
	.thumb
	.thumb_func
	.fpu fpv4-sp-d16
	.type	buf_read, %function
buf_read:
.LVL0:
.LFB0:
	.file 1 "/home/orlo/beep-base-firmware/Source_V1.5.12/Code/nRF/nRF5_SDK_15.3/external/nano-pb/pb_decode.c"
	.loc 1 76 1 view -0
	@ args = 0, pretend = 0, frame = 0
	@ frame_needed = 0, uses_anonymous_args = 0
	@ link register save eliminated.
	.loc 1 77 5 view .LVU1
	.loc 1 77 22 is_stmt 0 view .LVU2
	ldr	r3, [r0, #4]
.LVL1:
	.loc 1 78 5 is_stmt 1 view .LVU3
	.loc 1 78 47 is_stmt 0 view .LVU4
	add	r2, r2, r3
.LVL2:
	.loc 1 78 19 view .LVU5
	str	r2, [r0, #4]
	.loc 1 80 5 is_stmt 1 view .LVU6
	.loc 1 80 8 is_stmt 0 view .LVU7
	cbz	r1, .L7
	subs	r1, r1, #1
.LVL3:
.L3:
	.loc 1 82 15 is_stmt 1 view .LVU8
	.loc 1 82 15 is_stmt 0 view .LVU9
	cmp	r2, r3
	bne	.L4
.LVL4:
.L7:
	.loc 1 87 1 view .LVU10
	movs	r0, #1
	bx	lr
.LVL5:
.L4:
	.loc 1 83 13 is_stmt 1 view .LVU11
	.loc 1 83 22 is_stmt 0 view .LVU12
	ldrb	r0, [r3], #1	@ zero_extendqisi2
.LVL6:
	.loc 1 83 20 view .LVU13
	strb	r0, [r1, #1]!
	b	.L3
.LFE0:
	.size	buf_read, .-buf_read
	.section	.text.pb_field_set_to_default,"ax",%progbits
	.align	1
	.syntax unified
	.thumb
	.thumb_func
	.fpu fpv4-sp-d16
	.type	pb_field_set_to_default, %function
pb_field_set_to_default:
.LVL7:
.LFB21:
	.loc 1 752 1 is_stmt 1 view -0
	@ args = 0, pretend = 0, frame = 24
	@ frame_needed = 0, uses_anonymous_args = 0
	.loc 1 753 5 view .LVU15
	.loc 1 754 5 view .LVU16
	.loc 1 752 1 is_stmt 0 view .LVU17
	push	{r4, r5, r6, lr}
.LCFI0:
	.loc 1 754 16 view .LVU18
	ldr	r5, [r0, #4]
	.loc 1 754 10 view .LVU19
	ldrb	r2, [r5, #2]	@ zero_extendqisi2
.LVL8:
	.loc 1 756 5 is_stmt 1 view .LVU20
	and	r6, r2, #15
	.loc 1 756 8 is_stmt 0 view .LVU21
	cmp	r6, #8
	.loc 1 752 1 view .LVU22
	sub	sp, sp, #24
.LCFI1:
	.loc 1 752 1 view .LVU23
	mov	r3, r0
	.loc 1 756 8 view .LVU24
	bne	.L10
.LBB24:
	.loc 1 758 9 is_stmt 1 view .LVU25
	.loc 1 758 25 is_stmt 0 view .LVU26
	ldr	r3, [r0, #16]
	ldr	r4, [r3]
.LVL9:
	.loc 1 759 9 is_stmt 1 view .LVU27
.LBB25:
	.loc 1 762 24 is_stmt 0 view .LVU28
	movs	r6, #0
.LVL10:
.L11:
	.loc 1 762 24 view .LVU29
.LBE25:
	.loc 1 759 15 is_stmt 1 view .LVU30
	cbnz	r4, .L13
.LVL11:
.L9:
	.loc 1 759 15 is_stmt 0 view .LVU31
.LBE24:
	.loc 1 821 1 view .LVU32
	add	sp, sp, #24
.LCFI2:
	@ sp needed
	pop	{r4, r5, r6, pc}
.LVL12:
.L13:
.LCFI3:
.LBB33:
.LBB32:
	.loc 1 761 13 is_stmt 1 view .LVU33
	.loc 1 762 13 view .LVU34
.LBB26:
.LBB27:
	.loc 1 679 23 is_stmt 0 view .LVU35
	ldr	r3, [r4]
	.loc 1 680 11 view .LVU36
	ldr	r2, [r4, #4]
	.loc 1 679 23 view .LVU37
	ldr	r5, [r3, #8]
.LBE27:
.LBE26:
	.loc 1 762 24 view .LVU38
	strb	r6, [r4, #12]
	.loc 1 763 13 is_stmt 1 view .LVU39
.LVL13:
.LBB30:
.LBI26:
	.loc 1 674 13 view .LVU40
.LBB28:
	.loc 1 679 5 view .LVU41
	.loc 1 680 5 view .LVU42
	.loc 1 680 11 is_stmt 0 view .LVU43
	mov	r1, r5
	mov	r0, sp
	bl	pb_field_iter_begin
.LVL14:
	.loc 1 681 5 is_stmt 1 view .LVU44
	.loc 1 681 17 is_stmt 0 view .LVU45
	ldr	r3, [r4, #4]
	str	r3, [sp, #16]
	.loc 1 682 5 is_stmt 1 view .LVU46
	.loc 1 682 19 is_stmt 0 view .LVU47
	add	r3, r4, #12
	.loc 1 682 17 view .LVU48
	str	r3, [sp, #20]
	.loc 1 684 5 is_stmt 1 view .LVU49
	.loc 1 684 8 is_stmt 0 view .LVU50
	ldrb	r3, [r5, #2]	@ zero_extendqisi2
	and	r3, r3, #192
	cmp	r3, #128
	.loc 1 689 9 is_stmt 1 view .LVU51
	.loc 1 689 23 is_stmt 0 view .LVU52
	it	eq
	addeq	r3, r4, #4
.LBE28:
.LBE30:
	.loc 1 764 13 view .LVU53
	mov	r0, sp
.LBB31:
.LBB29:
	.loc 1 689 21 view .LVU54
	it	eq
	streq	r3, [sp, #16]
.LVL15:
	.loc 1 689 21 view .LVU55
.LBE29:
.LBE31:
	.loc 1 764 13 is_stmt 1 view .LVU56
	bl	pb_field_set_to_default
.LVL16:
	.loc 1 765 13 view .LVU57
	.loc 1 765 17 is_stmt 0 view .LVU58
	ldr	r4, [r4, #8]
.LVL17:
	.loc 1 765 17 view .LVU59
	b	.L11
.LVL18:
.L10:
	.loc 1 765 17 view .LVU60
.LBE32:
.LBE33:
	.loc 1 768 10 is_stmt 1 view .LVU61
	.loc 1 768 13 is_stmt 0 view .LVU62
	ands	r1, r2, #192
	bne	.L15
.LBB34:
	.loc 1 770 9 is_stmt 1 view .LVU63
.LVL19:
	.loc 1 771 9 view .LVU64
	.loc 1 771 12 is_stmt 0 view .LVU65
	and	r0, r2, #48
.LVL20:
	.loc 1 771 12 view .LVU66
	cmp	r0, #16
	bne	.L16
	.loc 1 775 13 is_stmt 1 view .LVU67
	.loc 1 775 33 is_stmt 0 view .LVU68
	ldr	r2, [r3, #20]
.LVL21:
	.loc 1 775 33 view .LVU69
	strb	r1, [r2]
.LVL22:
	.loc 1 786 9 is_stmt 1 view .LVU70
.L17:
	.loc 1 788 13 view .LVU71
	.loc 1 788 16 is_stmt 0 view .LVU72
	cmp	r6, #7
	.loc 1 791 74 view .LVU73
	ldr	r4, [r5, #12]
.LBE34:
.LBB35:
	.loc 1 758 61 view .LVU74
	ldr	r0, [r3, #16]
.LBE35:
.LBB36:
	.loc 1 788 16 view .LVU75
	bne	.L18
	.loc 1 791 17 is_stmt 1 view .LVU76
	mov	r1, r0
	mov	r0, r4
.LBE36:
	.loc 1 821 1 is_stmt 0 view .LVU77
	add	sp, sp, #24
.LCFI4:
	@ sp needed
	pop	{r4, r5, r6, lr}
.LCFI5:
.LBB37:
	.loc 1 791 17 view .LVU78
	b	pb_message_set_to_defaults
.LVL23:
.L16:
.LCFI6:
	.loc 1 777 14 is_stmt 1 view .LVU79
	.loc 1 777 17 is_stmt 0 view .LVU80
	lsls	r0, r2, #26
	bpl	.L17
.LVL24:
.L27:
	.loc 1 777 17 view .LVU81
.LBE37:
	.loc 1 814 13 is_stmt 1 view .LVU82
	.loc 1 814 38 is_stmt 0 view .LVU83
	ldr	r3, [r3, #20]
.LVL25:
	.loc 1 814 38 view .LVU84
	strh	r1, [r3]	@ movhi
	.loc 1 820 5 is_stmt 1 view .LVU85
	.loc 1 821 1 is_stmt 0 view .LVU86
	b	.L9
.LVL26:
.L18:
.LBB38:
	.loc 1 793 18 is_stmt 1 view .LVU87
	.loc 1 796 17 is_stmt 0 view .LVU88
	ldrh	r2, [r5, #8]
	mov	r1, r4
	.loc 1 793 21 view .LVU89
	cbz	r4, .L19
	.loc 1 796 17 is_stmt 1 view .LVU90
.LBE38:
	.loc 1 821 1 is_stmt 0 view .LVU91
	add	sp, sp, #24
.LCFI7:
	@ sp needed
	pop	{r4, r5, r6, lr}
.LCFI8:
.LBB39:
	.loc 1 796 17 view .LVU92
	b	memcpy
.LVL27:
.L19:
.LCFI9:
	.loc 1 801 17 is_stmt 1 view .LVU93
.LBE39:
	.loc 1 821 1 is_stmt 0 view .LVU94
	add	sp, sp, #24
.LCFI10:
	@ sp needed
	pop	{r4, r5, r6, lr}
.LCFI11:
.LBB40:
	.loc 1 801 17 view .LVU95
	b	memset
.LVL28:
.L15:
.LCFI12:
	.loc 1 801 17 view .LVU96
.LBE40:
	.loc 1 805 10 is_stmt 1 view .LVU97
	.loc 1 805 13 is_stmt 0 view .LVU98
	cmp	r1, #128
	bne	.L9
	.loc 1 808 9 is_stmt 1 view .LVU99
	.loc 1 808 22 is_stmt 0 view .LVU100
	ldr	r0, [r0, #16]
.LVL29:
	.loc 1 808 30 view .LVU101
	movs	r1, #0
	.loc 1 811 12 view .LVU102
	lsls	r2, r2, #26
.LVL30:
	.loc 1 808 30 view .LVU103
	str	r1, [r0]
.LVL31:
	.loc 1 811 9 is_stmt 1 view .LVU104
	.loc 1 811 12 is_stmt 0 view .LVU105
	bpl	.L9
	b	.L27
.LFE21:
	.size	pb_field_set_to_default, .-pb_field_set_to_default
	.section	.text.pb_message_set_to_defaults,"ax",%progbits
	.align	1
	.syntax unified
	.thumb
	.thumb_func
	.fpu fpv4-sp-d16
	.type	pb_message_set_to_defaults, %function
pb_message_set_to_defaults:
.LVL32:
.LFB22:
	.loc 1 824 1 is_stmt 1 view -0
	@ args = 0, pretend = 0, frame = 24
	@ frame_needed = 0, uses_anonymous_args = 0
	.loc 1 825 5 view .LVU107
	.loc 1 827 5 view .LVU108
	.loc 1 824 1 is_stmt 0 view .LVU109
	push	{r0, r1, r2, r3, r4, r5, r6, lr}
.LCFI13:
	.loc 1 824 1 view .LVU110
	mov	r2, r1
	.loc 1 827 10 view .LVU111
	mov	r1, r0
.LVL33:
	.loc 1 827 10 view .LVU112
	mov	r0, sp
.LVL34:
	.loc 1 827 10 view .LVU113
	bl	pb_field_iter_begin
.LVL35:
.L33:
	.loc 1 827 8 view .LVU114
	cbz	r0, .L28
	.loc 1 830 5 is_stmt 1 discriminator 1 view .LVU115
	.loc 1 832 9 discriminator 1 view .LVU116
	mov	r0, sp
	bl	pb_field_set_to_default
.LVL36:
	.loc 1 833 13 discriminator 1 view .LVU117
	.loc 1 833 14 is_stmt 0 discriminator 1 view .LVU118
	mov	r0, sp
	bl	pb_field_iter_next
.LVL37:
	b	.L33
.L28:
	.loc 1 834 1 view .LVU119
	add	sp, sp, #28
.LCFI14:
	@ sp needed
	ldr	pc, [sp], #4
.LFE22:
	.size	pb_message_set_to_defaults, .-pb_message_set_to_defaults
	.section	.text.pb_readbyte,"ax",%progbits
	.align	1
	.syntax unified
	.thumb
	.thumb_func
	.fpu fpv4-sp-d16
	.type	pb_readbyte, %function
pb_readbyte:
.LVL38:
.LFB2:
	.loc 1 126 1 is_stmt 1 view -0
	@ args = 0, pretend = 0, frame = 0
	@ frame_needed = 0, uses_anonymous_args = 0
	.loc 1 127 5 view .LVU121
	.loc 1 127 8 is_stmt 0 view .LVU122
	ldr	r3, [r0, #8]
	.loc 1 126 1 view .LVU123
	push	{r4, lr}
.LCFI15:
	.loc 1 126 1 view .LVU124
	mov	r4, r0
	.loc 1 127 8 view .LVU125
	cbnz	r3, .L35
.LVL39:
.L37:
	.loc 1 128 9 view .LVU126
	movs	r0, #0
.L36:
	.loc 1 141 1 view .LVU127
	pop	{r4, pc}
.LVL40:
.L35:
.LBB43:
.LBI43:
	.loc 1 125 25 is_stmt 1 view .LVU128
.LBB44:
	.loc 1 131 5 view .LVU129
	.loc 1 131 10 is_stmt 0 view .LVU130
	ldr	r3, [r0]
	movs	r2, #1
	blx	r3
.LVL41:
	.loc 1 131 8 view .LVU131
	cmp	r0, #0
	beq	.L37
	.loc 1 138 5 is_stmt 1 view .LVU132
	.loc 1 138 23 is_stmt 0 view .LVU133
	ldr	r3, [r4, #8]
	subs	r3, r3, #1
	str	r3, [r4, #8]
	.loc 1 140 5 is_stmt 1 view .LVU134
	.loc 1 140 12 is_stmt 0 view .LVU135
	b	.L36
.LBE44:
.LBE43:
.LFE2:
	.size	pb_readbyte, .-pb_readbyte
	.section	.text.pb_decode_varint32,"ax",%progbits
	.align	1
	.syntax unified
	.thumb
	.thumb_func
	.fpu fpv4-sp-d16
	.type	pb_decode_varint32, %function
pb_decode_varint32:
.LVL42:
.LFB4:
	.loc 1 173 1 is_stmt 1 view -0
	@ args = 0, pretend = 0, frame = 8
	@ frame_needed = 0, uses_anonymous_args = 0
	.loc 1 174 5 view .LVU137
	.loc 1 175 5 view .LVU138
	.loc 1 177 5 view .LVU139
	.loc 1 173 1 is_stmt 0 view .LVU140
	push	{r0, r1, r4, r5, r6, r7, r8, lr}
.LCFI16:
	.loc 1 173 1 view .LVU141
	mov	r7, r1
	.loc 1 177 10 view .LVU142
	add	r1, sp, #7
.LVL43:
	.loc 1 173 1 view .LVU143
	mov	r8, r0
	.loc 1 177 10 view .LVU144
	bl	pb_readbyte
.LVL44:
	.loc 1 177 8 view .LVU145
	mov	r5, r0
	cbnz	r0, .L42
.L47:
	.loc 1 178 16 view .LVU146
	movs	r5, #0
.L43:
	.loc 1 206 1 view .LVU147
	mov	r0, r5
	add	sp, sp, #8
.LCFI17:
	@ sp needed
	pop	{r4, r5, r6, r7, r8, pc}
.LVL45:
.L42:
.LCFI18:
	.loc 1 180 5 is_stmt 1 view .LVU148
	.loc 1 180 8 is_stmt 0 view .LVU149
	ldrsb	r3, [sp, #7]
	.loc 1 180 23 view .LVU150
	ldrb	r4, [sp, #7]	@ zero_extendqisi2
	.loc 1 180 8 view .LVU151
	cmp	r3, #0
	bge	.L45
.LBB45:
	.loc 1 188 9 is_stmt 1 view .LVU152
.LVL46:
	.loc 1 189 9 view .LVU153
	.loc 1 189 16 is_stmt 0 view .LVU154
	and	r4, r4, #127
.LVL47:
	.loc 1 191 9 is_stmt 1 view .LVU155
	.loc 1 193 13 view .LVU156
	.loc 1 188 22 is_stmt 0 view .LVU157
	movs	r6, #7
.LVL48:
.L46:
	.loc 1 196 13 is_stmt 1 view .LVU158
	.loc 1 196 18 is_stmt 0 view .LVU159
	add	r1, sp, #7
	mov	r0, r8
	bl	pb_readbyte
.LVL49:
	.loc 1 196 16 view .LVU160
	cmp	r0, #0
	beq	.L47
	.loc 1 199 13 is_stmt 1 view .LVU161
	.loc 1 199 39 is_stmt 0 view .LVU162
	ldrb	r2, [sp, #7]	@ zero_extendqisi2
	.loc 1 199 23 view .LVU163
	and	r3, r2, #127
	.loc 1 199 47 view .LVU164
	lsls	r3, r3, r6
	.loc 1 199 20 view .LVU165
	orrs	r4, r4, r3
.LVL50:
	.loc 1 200 13 is_stmt 1 view .LVU166
	.loc 1 201 9 is_stmt 0 view .LVU167
	lsls	r3, r2, #24
	.loc 1 200 20 view .LVU168
	add	r6, r6, #7
.LVL51:
	.loc 1 201 17 is_stmt 1 view .LVU169
	.loc 1 201 9 is_stmt 0 view .LVU170
	bmi	.L48
.LVL52:
.L45:
	.loc 1 201 9 view .LVU171
.LBE45:
	.loc 1 204 4 is_stmt 1 view .LVU172
	.loc 1 204 10 is_stmt 0 view .LVU173
	str	r4, [r7]
	.loc 1 205 4 is_stmt 1 view .LVU174
	.loc 1 205 11 is_stmt 0 view .LVU175
	b	.L43
.LVL53:
.L48:
.LBB46:
	.loc 1 191 9 is_stmt 1 view .LVU176
	.loc 1 193 13 view .LVU177
	.loc 1 193 16 is_stmt 0 view .LVU178
	cmp	r6, #35
	bne	.L46
	b	.L47
.LBE46:
.LFE4:
	.size	pb_decode_varint32, .-pb_decode_varint32
	.section	.text.pb_read,"ax",%progbits
	.align	1
	.global	pb_read
	.syntax unified
	.thumb
	.thumb_func
	.fpu fpv4-sp-d16
	.type	pb_read, %function
pb_read:
.LVL54:
.LFB1:
	.loc 1 90 1 is_stmt 1 view -0
	@ args = 0, pretend = 0, frame = 16
	@ frame_needed = 0, uses_anonymous_args = 0
	.loc 1 92 2 view .LVU180
	.loc 1 90 1 is_stmt 0 view .LVU181
	push	{r4, r5, lr}
.LCFI19:
	mov	r4, r0
	sub	sp, sp, #20
.LCFI20:
	.loc 1 90 1 view .LVU182
	mov	r5, r2
	.loc 1 92 5 view .LVU183
	cbnz	r1, .L56
	.loc 1 92 18 discriminator 1 view .LVU184
	ldr	r2, [r0]
.LVL55:
	.loc 1 92 18 discriminator 1 view .LVU185
	ldr	r3, .L70
	cmp	r2, r3
	beq	.L56
.LVL56:
.L57:
.LBB47:
	.loc 1 96 9 is_stmt 1 view .LVU186
	cmp	r5, #16
	bhi	.L59
	.loc 1 104 3 view .LVU187
	.loc 1 104 10 is_stmt 0 view .LVU188
	mov	r2, r5
	mov	r1, sp
	mov	r0, r4
	bl	pb_read
.LVL57:
.L60:
	.loc 1 104 10 view .LVU189
.LBE47:
	.loc 1 121 1 discriminator 1 view .LVU190
	add	sp, sp, #20
.LCFI21:
	@ sp needed
	pop	{r4, r5, pc}
.LVL58:
.L59:
.LCFI22:
.LBB48:
	.loc 1 98 4 is_stmt 1 view .LVU191
	.loc 1 98 9 is_stmt 0 view .LVU192
	movs	r2, #16
	mov	r1, sp
	mov	r0, r4
	bl	pb_read
.LVL59:
	.loc 1 98 7 view .LVU193
	cmp	r0, #0
	beq	.L60
	.loc 1 101 4 is_stmt 1 view .LVU194
	.loc 1 101 10 is_stmt 0 view .LVU195
	subs	r5, r5, #16
.LVL60:
	.loc 1 101 10 view .LVU196
	b	.L57
.LVL61:
.L56:
	.loc 1 101 10 view .LVU197
.LBE48:
	.loc 1 108 5 is_stmt 1 view .LVU198
	.loc 1 108 8 is_stmt 0 view .LVU199
	ldr	r3, [r4, #8]
	cmp	r3, r5
	bcs	.L61
.LVL62:
.L62:
	.loc 1 109 9 view .LVU200
	movs	r0, #0
	b	.L60
.LVL63:
.L61:
	.loc 1 112 5 is_stmt 1 view .LVU201
	.loc 1 112 10 is_stmt 0 view .LVU202
	ldr	r3, [r4]
	mov	r2, r5
	mov	r0, r4
.LVL64:
	.loc 1 112 10 view .LVU203
	blx	r3
.LVL65:
	.loc 1 112 8 view .LVU204
	cmp	r0, #0
	beq	.L62
	.loc 1 119 5 is_stmt 1 view .LVU205
	.loc 1 119 24 is_stmt 0 view .LVU206
	ldr	r2, [r4, #8]
	subs	r2, r2, r5
	str	r2, [r4, #8]
	.loc 1 120 5 is_stmt 1 view .LVU207
	.loc 1 120 12 is_stmt 0 view .LVU208
	b	.L60
.L71:
	.align	2
.L70:
	.word	buf_read
.LFE1:
	.size	pb_read, .-pb_read
	.section	.text.pb_dec_string,"ax",%progbits
	.align	1
	.syntax unified
	.thumb
	.thumb_func
	.fpu fpv4-sp-d16
	.type	pb_dec_string, %function
pb_dec_string:
.LVL66:
.LFB35:
	.loc 1 1285 1 is_stmt 1 view -0
	@ args = 0, pretend = 0, frame = 8
	@ frame_needed = 0, uses_anonymous_args = 0
	.loc 1 1286 5 view .LVU210
	.loc 1 1287 5 view .LVU211
	.loc 1 1288 5 view .LVU212
	.loc 1 1289 5 view .LVU213
	.loc 1 1285 1 is_stmt 0 view .LVU214
	push	{r0, r1, r2, r4, r5, r6, r7, lr}
.LCFI23:
	.loc 1 1285 1 view .LVU215
	mov	r6, r1
	.loc 1 1289 10 view .LVU216
	add	r1, sp, #4
.LVL67:
	.loc 1 1285 1 view .LVU217
	mov	r7, r0
	mov	r5, r2
	.loc 1 1289 10 view .LVU218
	bl	pb_decode_varint32
.LVL68:
	.loc 1 1289 8 view .LVU219
	cbz	r0, .L73
	.loc 1 1293 5 is_stmt 1 view .LVU220
	.loc 1 1293 23 is_stmt 0 view .LVU221
	ldr	r2, [sp, #4]
	adds	r1, r2, #1
	mov	r4, #0
	bcs	.L78
	.loc 1 1298 5 is_stmt 1 view .LVU222
	.loc 1 1298 8 is_stmt 0 view .LVU223
	ldrb	r3, [r6, #2]	@ zero_extendqisi2
	and	r3, r3, #192
	cmp	r3, #128
	bne	.L82
.L78:
	.loc 1 1290 16 view .LVU224
	mov	r0, r4
	b	.L73
.L82:
	.loc 1 1310 9 is_stmt 1 view .LVU225
	.loc 1 1310 31 is_stmt 0 view .LVU226
	ldrh	r3, [r6, #8]
	.loc 1 1310 12 view .LVU227
	cmp	r3, r1
	bcc	.L78
	.loc 1 1314 5 is_stmt 1 view .LVU228
	.loc 1 1314 14 is_stmt 0 view .LVU229
	mov	r1, r5
	mov	r0, r7
	bl	pb_read
.LVL69:
	.loc 1 1315 5 is_stmt 1 view .LVU230
	.loc 1 1315 32 is_stmt 0 view .LVU231
	ldr	r3, [sp, #4]
	strb	r4, [r5, r3]
	.loc 1 1316 5 is_stmt 1 view .LVU232
.LVL70:
.L73:
	.loc 1 1317 1 is_stmt 0 view .LVU233
	add	sp, sp, #12
.LCFI24:
	@ sp needed
	pop	{r4, r5, r6, r7, pc}
	.loc 1 1317 1 view .LVU234
.LFE35:
	.size	pb_dec_string, .-pb_dec_string
	.section	.text.pb_dec_bytes,"ax",%progbits
	.align	1
	.syntax unified
	.thumb
	.thumb_func
	.fpu fpv4-sp-d16
	.type	pb_dec_bytes, %function
pb_dec_bytes:
.LVL71:
.LFB34:
	.loc 1 1248 1 is_stmt 1 view -0
	@ args = 0, pretend = 0, frame = 8
	@ frame_needed = 0, uses_anonymous_args = 0
	.loc 1 1249 5 view .LVU236
	.loc 1 1250 5 view .LVU237
	.loc 1 1251 5 view .LVU238
	.loc 1 1253 5 view .LVU239
	.loc 1 1248 1 is_stmt 0 view .LVU240
	push	{r0, r1, r4, r5, r6, lr}
.LCFI25:
	.loc 1 1248 1 view .LVU241
	mov	r5, r1
	.loc 1 1253 10 view .LVU242
	add	r1, sp, #4
.LVL72:
	.loc 1 1248 1 view .LVU243
	mov	r6, r0
	mov	r4, r2
	.loc 1 1253 10 view .LVU244
	bl	pb_decode_varint32
.LVL73:
	.loc 1 1253 8 view .LVU245
	cbz	r0, .L84
	.loc 1 1256 5 is_stmt 1 view .LVU246
	.loc 1 1256 14 is_stmt 0 view .LVU247
	ldr	r2, [sp, #4]
	.loc 1 1256 8 view .LVU248
	cmp	r2, #65536
	bcs	.L87
	.loc 1 1259 5 is_stmt 1 view .LVU249
	.loc 1 1263 8 is_stmt 0 view .LVU250
	ldrb	r3, [r5, #2]	@ zero_extendqisi2
	and	r3, r3, #192
	cmp	r3, #128
	.loc 1 1259 16 view .LVU251
	add	r1, r2, #2
.LVL74:
	.loc 1 1260 5 is_stmt 1 view .LVU252
	.loc 1 1263 5 view .LVU253
	.loc 1 1263 8 is_stmt 0 view .LVU254
	beq	.L87
	.loc 1 1275 9 is_stmt 1 view .LVU255
	.loc 1 1275 31 is_stmt 0 view .LVU256
	ldrh	r3, [r5, #8]
	.loc 1 1275 12 view .LVU257
	cmp	r3, r1
	bcc	.L87
	.loc 1 1277 9 is_stmt 1 view .LVU258
.LVL75:
	.loc 1 1280 5 view .LVU259
	.loc 1 1280 19 is_stmt 0 view .LVU260
	mov	r1, r4
.LVL76:
	.loc 1 1281 12 view .LVU261
	mov	r0, r6
	.loc 1 1280 19 view .LVU262
	strh	r2, [r1], #2	@ movhi
	.loc 1 1281 5 is_stmt 1 view .LVU263
	.loc 1 1281 12 is_stmt 0 view .LVU264
	bl	pb_read
.LVL77:
.L84:
	.loc 1 1282 1 view .LVU265
	add	sp, sp, #8
.LCFI26:
	@ sp needed
	pop	{r4, r5, r6, pc}
.LVL78:
.L87:
.LCFI27:
	.loc 1 1254 16 view .LVU266
	movs	r0, #0
	b	.L84
.LFE34:
	.size	pb_dec_bytes, .-pb_dec_bytes
	.section	.text.pb_istream_from_buffer,"ax",%progbits
	.align	1
	.global	pb_istream_from_buffer
	.syntax unified
	.thumb
	.thumb_func
	.fpu fpv4-sp-d16
	.type	pb_istream_from_buffer, %function
pb_istream_from_buffer:
.LVL79:
.LFB3:
	.loc 1 144 1 is_stmt 1 view -0
	@ args = 0, pretend = 0, frame = 0
	@ frame_needed = 0, uses_anonymous_args = 0
	.loc 1 145 5 view .LVU268
	.loc 1 149 5 view .LVU269
	.loc 1 156 5 view .LVU270
	.loc 1 158 5 view .LVU271
	.loc 1 159 5 view .LVU272
	.loc 1 160 5 view .LVU273
	.loc 1 161 5 view .LVU274
	.loc 1 165 5 view .LVU275
	.loc 1 144 1 is_stmt 0 view .LVU276
	push	{r4, lr}
.LCFI28:
	.loc 1 165 12 view .LVU277
	ldr	r4, .L92
	str	r2, [r0, #8]
	movs	r2, #0
.LVL80:
	.loc 1 165 12 view .LVU278
	strd	r4, r1, [r0]
	str	r2, [r0, #12]
.LVL81:
	.loc 1 166 1 view .LVU279
	pop	{r4, pc}
.L93:
	.align	2
.L92:
	.word	buf_read
.LFE3:
	.size	pb_istream_from_buffer, .-pb_istream_from_buffer
	.section	.text.pb_decode_varint,"ax",%progbits
	.align	1
	.global	pb_decode_varint
	.syntax unified
	.thumb
	.thumb_func
	.fpu fpv4-sp-d16
	.type	pb_decode_varint, %function
pb_decode_varint:
.LVL82:
.LFB5:
	.loc 1 209 1 is_stmt 1 view -0
	@ args = 0, pretend = 0, frame = 8
	@ frame_needed = 0, uses_anonymous_args = 0
	.loc 1 210 5 view .LVU281
	.loc 1 211 5 view .LVU282
	.loc 1 212 5 view .LVU283
	.loc 1 214 5 view .LVU284
	.loc 1 216 9 view .LVU285
	.loc 1 209 1 is_stmt 0 view .LVU286
	push	{r0, r1, r4, r5, r6, r7, r8, lr}
.LCFI29:
	.loc 1 212 14 view .LVU287
	movs	r5, #0
	.loc 1 209 1 view .LVU288
	mov	r8, r0
	mov	r6, r1
	.loc 1 212 14 view .LVU289
	mov	r7, r5
	.loc 1 211 18 view .LVU290
	mov	r4, r5
.LVL83:
.L95:
	.loc 1 219 9 is_stmt 1 view .LVU291
	.loc 1 219 14 is_stmt 0 view .LVU292
	add	r1, sp, #7
	mov	r0, r8
	bl	pb_readbyte
.LVL84:
	.loc 1 219 12 view .LVU293
	cbz	r0, .L96
	.loc 1 222 9 is_stmt 1 view .LVU294
	.loc 1 222 35 is_stmt 0 view .LVU295
	ldrb	ip, [sp, #7]	@ zero_extendqisi2
	.loc 1 222 43 view .LVU296
	sub	r3, r4, #32
	.loc 1 222 19 view .LVU297
	and	r2, ip, #127
	.loc 1 222 43 view .LVU298
	rsb	r1, r4, #32
	lsl	r3, r2, r3
	lsr	r1, r2, r1
	orrs	r3, r3, r1
	lsls	r2, r2, r4
	.loc 1 224 5 view .LVU299
	tst	ip, #128
	.loc 1 222 16 view .LVU300
	orr	r5, r5, r2
.LVL85:
	.loc 1 222 16 view .LVU301
	orr	r7, r7, r3
.LVL86:
	.loc 1 223 9 is_stmt 1 view .LVU302
	.loc 1 223 16 is_stmt 0 view .LVU303
	add	r4, r4, #7
.LVL87:
	.loc 1 224 13 is_stmt 1 view .LVU304
	.loc 1 224 5 is_stmt 0 view .LVU305
	bne	.L97
	.loc 1 226 5 is_stmt 1 view .LVU306
	.loc 1 226 11 is_stmt 0 view .LVU307
	strd	r5, r7, [r6]
	.loc 1 227 5 is_stmt 1 view .LVU308
.LVL88:
.L96:
	.loc 1 228 1 is_stmt 0 view .LVU309
	add	sp, sp, #8
.LCFI30:
	@ sp needed
	pop	{r4, r5, r6, r7, r8, pc}
.LVL89:
.L97:
.LCFI31:
	.loc 1 214 5 is_stmt 1 view .LVU310
	.loc 1 216 9 view .LVU311
	.loc 1 216 12 is_stmt 0 view .LVU312
	cmp	r4, #70
	bne	.L95
	.loc 1 217 13 view .LVU313
	movs	r0, #0
	b	.L96
.LFE5:
	.size	pb_decode_varint, .-pb_decode_varint
	.section	.text.pb_dec_uvarint,"ax",%progbits
	.align	1
	.syntax unified
	.thumb
	.thumb_func
	.fpu fpv4-sp-d16
	.type	pb_dec_uvarint, %function
pb_dec_uvarint:
.LVL90:
.LFB30:
	.loc 1 1188 1 is_stmt 1 view -0
	@ args = 0, pretend = 0, frame = 8
	@ frame_needed = 0, uses_anonymous_args = 0
	.loc 1 1189 5 view .LVU315
	.loc 1 1190 5 view .LVU316
	.loc 1 1188 1 is_stmt 0 view .LVU317
	push	{r0, r1, r2, r4, r5, lr}
.LCFI32:
	.loc 1 1188 1 view .LVU318
	mov	r5, r1
	.loc 1 1190 10 view .LVU319
	mov	r1, sp
.LVL91:
	.loc 1 1188 1 view .LVU320
	mov	r4, r2
	.loc 1 1190 10 view .LVU321
	bl	pb_decode_varint
.LVL92:
	.loc 1 1190 8 view .LVU322
	cbz	r0, .L103
	.loc 1 1194 5 is_stmt 1 view .LVU323
	.loc 1 1194 14 is_stmt 0 view .LVU324
	ldrh	r3, [r5, #8]
	.loc 1 1194 8 view .LVU325
	cmp	r3, #8
	bne	.L104
	.loc 1 1195 9 is_stmt 1 view .LVU326
	.loc 1 1195 36 is_stmt 0 view .LVU327
	ldrd	r3, r2, [sp]
	strd	r3, r2, [r4]
.LVL93:
.L105:
	.loc 1 1205 5 is_stmt 1 view .LVU328
	.loc 1 1205 8 is_stmt 0 view .LVU329
	ldrd	r0, r1, [sp]
	cmp	r1, r2
	it	eq
	cmpeq	r0, r3
	ite	eq
	moveq	r0, #1
	movne	r0, #0
.LVL94:
.L103:
	.loc 1 1209 1 view .LVU330
	add	sp, sp, #12
.LCFI33:
	@ sp needed
	pop	{r4, r5, pc}
.LVL95:
.L104:
.LCFI34:
	.loc 1 1196 10 is_stmt 1 view .LVU331
	.loc 1 1196 13 is_stmt 0 view .LVU332
	cmp	r3, #4
	bne	.L106
	.loc 1 1197 9 is_stmt 1 view .LVU333
	.loc 1 1197 38 is_stmt 0 view .LVU334
	ldr	r3, [sp]
	str	r3, [r4]
.L112:
	.loc 1 1197 38 view .LVU335
	movs	r2, #0
.LVL96:
	.loc 1 1197 38 view .LVU336
	b	.L105
.LVL97:
.L106:
	.loc 1 1198 10 is_stmt 1 view .LVU337
	.loc 1 1198 13 is_stmt 0 view .LVU338
	cmp	r3, #2
	bne	.L107
	.loc 1 1199 9 is_stmt 1 view .LVU339
	.loc 1 1199 44 is_stmt 0 view .LVU340
	ldr	r3, [sp]
	strh	r3, [r4]	@ movhi
	uxth	r3, r3
	b	.L112
.L107:
	.loc 1 1200 10 is_stmt 1 view .LVU341
	.loc 1 1200 13 is_stmt 0 view .LVU342
	cmp	r3, #1
	bne	.L108
	.loc 1 1201 9 is_stmt 1 view .LVU343
	.loc 1 1201 43 is_stmt 0 view .LVU344
	ldr	r3, [sp]
	strb	r3, [r4]
	and	r3, r3, #255
	b	.L112
.L108:
	.loc 1 1191 16 view .LVU345
	movs	r0, #0
	b	.L103
.LFE30:
	.size	pb_dec_uvarint, .-pb_dec_uvarint
	.section	.text.pb_dec_varint,"ax",%progbits
	.align	1
	.syntax unified
	.thumb
	.thumb_func
	.fpu fpv4-sp-d16
	.type	pb_dec_varint, %function
pb_dec_varint:
.LVL98:
.LFB29:
	.loc 1 1151 1 is_stmt 1 view -0
	@ args = 0, pretend = 0, frame = 8
	@ frame_needed = 0, uses_anonymous_args = 0
	.loc 1 1152 5 view .LVU347
	.loc 1 1153 5 view .LVU348
	.loc 1 1154 5 view .LVU349
	.loc 1 1155 5 view .LVU350
	.loc 1 1151 1 is_stmt 0 view .LVU351
	push	{r0, r1, r2, r4, r5, lr}
.LCFI35:
	.loc 1 1151 1 view .LVU352
	mov	r5, r1
	.loc 1 1155 10 view .LVU353
	mov	r1, sp
.LVL99:
	.loc 1 1151 1 view .LVU354
	mov	r4, r2
	.loc 1 1155 10 view .LVU355
	bl	pb_decode_varint
.LVL100:
	.loc 1 1155 8 view .LVU356
	cbz	r0, .L114
	.loc 1 1164 5 is_stmt 1 view .LVU357
	.loc 1 1164 14 is_stmt 0 view .LVU358
	ldrh	r3, [r5, #8]
	.loc 1 1164 8 view .LVU359
	cmp	r3, #8
	.loc 1 1165 18 view .LVU360
	ldrd	r1, r2, [sp]
	.loc 1 1164 8 view .LVU361
	bne	.L115
	.loc 1 1165 9 is_stmt 1 view .LVU362
.LVL101:
	.loc 1 1170 5 view .LVU363
	.loc 1 1171 9 view .LVU364
	.loc 1 1171 35 is_stmt 0 view .LVU365
	strd	r1, r2, [r4]
.LVL102:
	.loc 1 1181 5 is_stmt 1 view .LVU366
.L114:
	.loc 1 1185 1 is_stmt 0 view .LVU367
	add	sp, sp, #12
.LCFI36:
	@ sp needed
	pop	{r4, r5, pc}
.LVL103:
.L115:
.LCFI37:
	.loc 1 1167 9 is_stmt 1 view .LVU368
	.loc 1 1172 13 is_stmt 0 view .LVU369
	cmp	r3, #4
	.loc 1 1167 16 view .LVU370
	asr	r0, r1, #31
.LVL104:
	.loc 1 1170 5 is_stmt 1 view .LVU371
	.loc 1 1172 10 view .LVU372
	.loc 1 1172 13 is_stmt 0 view .LVU373
	bne	.L116
	.loc 1 1173 9 is_stmt 1 view .LVU374
	.loc 1 1173 35 is_stmt 0 view .LVU375
	str	r1, [r4]
.LVL105:
	.loc 1 1173 17 view .LVU376
	mov	r3, r1
	mov	r2, r0
.LVL106:
.L117:
	.loc 1 1181 5 is_stmt 1 view .LVU377
	.loc 1 1181 8 is_stmt 0 view .LVU378
	cmp	r2, r0
	it	eq
	cmpeq	r3, r1
	ite	eq
	moveq	r0, #1
.LVL107:
	.loc 1 1181 8 view .LVU379
	movne	r0, #0
	b	.L114
.LVL108:
.L116:
	.loc 1 1174 10 is_stmt 1 view .LVU380
	.loc 1 1174 13 is_stmt 0 view .LVU381
	cmp	r3, #2
	bne	.L118
	.loc 1 1175 9 is_stmt 1 view .LVU382
	.loc 1 1175 43 is_stmt 0 view .LVU383
	sxth	r3, r1
	.loc 1 1175 41 view .LVU384
	strh	r3, [r4]	@ movhi
.L123:
	.loc 1 1177 17 view .LVU385
	asrs	r2, r3, #31
	.loc 1 1177 17 view .LVU386
	b	.L117
.L118:
	.loc 1 1176 10 is_stmt 1 view .LVU387
	.loc 1 1176 13 is_stmt 0 view .LVU388
	cmp	r3, #1
	bne	.L119
	.loc 1 1177 9 is_stmt 1 view .LVU389
	.loc 1 1177 42 is_stmt 0 view .LVU390
	sxtb	r3, r1
	.loc 1 1177 40 view .LVU391
	strb	r3, [r4]
	b	.L123
.L119:
	.loc 1 1156 16 view .LVU392
	movs	r0, #0
.LVL109:
	.loc 1 1156 16 view .LVU393
	b	.L114
.LFE29:
	.size	pb_dec_varint, .-pb_dec_varint
	.section	.text.pb_decode_tag,"ax",%progbits
	.align	1
	.global	pb_decode_tag
	.syntax unified
	.thumb
	.thumb_func
	.fpu fpv4-sp-d16
	.type	pb_decode_tag, %function
pb_decode_tag:
.LVL110:
.LFB8:
	.loc 1 251 1 is_stmt 1 view -0
	@ args = 0, pretend = 0, frame = 8
	@ frame_needed = 0, uses_anonymous_args = 0
	.loc 1 252 5 view .LVU395
	.loc 1 253 5 view .LVU396
	.loc 1 251 1 is_stmt 0 view .LVU397
	push	{r0, r1, r2, r4, r5, r6, r7, lr}
.LCFI38:
	.loc 1 251 1 view .LVU398
	mov	r7, r3
	.loc 1 253 10 view .LVU399
	movs	r3, #0
.LVL111:
	.loc 1 253 10 view .LVU400
	strb	r3, [r7]
	.loc 1 254 5 is_stmt 1 view .LVU401
	.loc 1 251 1 is_stmt 0 view .LVU402
	mov	r5, r1
	.loc 1 254 16 view .LVU403
	strb	r3, [r1]
	.loc 1 255 5 is_stmt 1 view .LVU404
	.loc 1 255 10 is_stmt 0 view .LVU405
	str	r3, [r2]
	.loc 1 257 5 is_stmt 1 view .LVU406
	.loc 1 257 10 is_stmt 0 view .LVU407
	add	r1, sp, #4
.LVL112:
	.loc 1 251 1 view .LVU408
	mov	r4, r0
	mov	r6, r2
	.loc 1 257 10 view .LVU409
	bl	pb_decode_varint32
.LVL113:
	.loc 1 257 8 view .LVU410
	cbnz	r0, .L125
	.loc 1 259 9 is_stmt 1 view .LVU411
	.loc 1 259 12 is_stmt 0 view .LVU412
	ldr	r3, [r4, #8]
	cbnz	r3, .L126
.LVL114:
.L127:
	.loc 1 260 13 is_stmt 1 view .LVU413
	.loc 1 260 18 is_stmt 0 view .LVU414
	movs	r3, #1
	strb	r3, [r7]
	.loc 1 262 16 view .LVU415
	movs	r0, #0
.L126:
	.loc 1 274 1 view .LVU416
	add	sp, sp, #12
.LCFI39:
	@ sp needed
	pop	{r4, r5, r6, r7, pc}
.LVL115:
.L125:
.LCFI40:
	.loc 1 265 5 is_stmt 1 view .LVU417
	.loc 1 265 14 is_stmt 0 view .LVU418
	ldr	r4, [sp, #4]
.LVL116:
	.loc 1 265 8 view .LVU419
	cmp	r4, #0
	beq	.L127
	.loc 1 271 5 is_stmt 1 view .LVU420
	.loc 1 271 17 is_stmt 0 view .LVU421
	lsrs	r3, r4, #3
	.loc 1 272 40 view .LVU422
	and	r4, r4, #7
	.loc 1 271 10 view .LVU423
	str	r3, [r6]
	.loc 1 272 5 is_stmt 1 view .LVU424
	.loc 1 272 16 is_stmt 0 view .LVU425
	strb	r4, [r5]
	.loc 1 273 5 is_stmt 1 view .LVU426
	.loc 1 273 12 is_stmt 0 view .LVU427
	b	.L126
.LFE8:
	.size	pb_decode_tag, .-pb_decode_tag
	.section	.text.pb_skip_field,"ax",%progbits
	.align	1
	.global	pb_skip_field
	.syntax unified
	.thumb
	.thumb_func
	.fpu fpv4-sp-d16
	.type	pb_skip_field, %function
pb_skip_field:
.LVL117:
.LFB9:
	.loc 1 277 1 is_stmt 1 view -0
	@ args = 0, pretend = 0, frame = 8
	@ frame_needed = 0, uses_anonymous_args = 0
	.loc 1 278 5 view .LVU429
	.loc 1 277 1 is_stmt 0 view .LVU430
	push	{r0, r1, r4, lr}
.LCFI41:
	.loc 1 277 1 view .LVU431
	mov	r4, r0
	cmp	r1, #5
	bhi	.L140
	tbb	[pc, r1]
.L134:
	.byte	(.L137-.L134)/2
	.byte	(.L136-.L134)/2
	.byte	(.L135-.L134)/2
	.byte	(.L140-.L134)/2
	.byte	(.L140-.L134)/2
	.byte	(.L133-.L134)/2
.LVL118:
	.p2align 1
.L137:
.LBB53:
.LBB54:
	.loc 1 232 5 is_stmt 1 view .LVU432
	.loc 1 233 5 view .LVU433
	.loc 1 235 9 view .LVU434
	.loc 1 235 14 is_stmt 0 view .LVU435
	movs	r2, #1
	add	r1, sp, #4
	mov	r0, r4
	bl	pb_read
.LVL119:
	.loc 1 235 12 view .LVU436
	cbz	r0, .L132
	.loc 1 237 13 is_stmt 1 view .LVU437
	.loc 1 237 5 is_stmt 0 view .LVU438
	ldrsb	r3, [sp, #4]
	cmp	r3, #0
	blt	.L137
.L132:
	.loc 1 237 5 view .LVU439
.LBE54:
.LBE53:
	.loc 1 286 1 view .LVU440
	add	sp, sp, #8
.LCFI42:
	@ sp needed
	pop	{r4, pc}
.LVL120:
.L136:
.LCFI43:
	.loc 1 281 27 is_stmt 1 view .LVU441
	.loc 1 281 34 is_stmt 0 view .LVU442
	movs	r2, #8
.L149:
	.loc 1 283 34 view .LVU443
	movs	r1, #0
.LVL121:
	.loc 1 283 34 view .LVU444
	mov	r0, r4
.LVL122:
	.loc 1 286 1 view .LVU445
	add	sp, sp, #8
.LCFI44:
	@ sp needed
	pop	{r4, lr}
.LCFI45:
.LVL123:
	.loc 1 283 34 view .LVU446
	b	pb_read
.LVL124:
.L135:
.LCFI46:
	.loc 1 282 28 is_stmt 1 view .LVU447
.LBB55:
.LBI55:
	.loc 1 241 18 view .LVU448
.LBB56:
	.loc 1 243 5 view .LVU449
	.loc 1 244 5 view .LVU450
	.loc 1 244 10 is_stmt 0 view .LVU451
	add	r1, sp, #4
.LVL125:
	.loc 1 244 10 view .LVU452
	bl	pb_decode_varint32
.LVL126:
	.loc 1 244 8 view .LVU453
	cmp	r0, #0
	beq	.L132
	.loc 1 247 5 is_stmt 1 view .LVU454
	.loc 1 247 12 is_stmt 0 view .LVU455
	ldr	r2, [sp, #4]
	movs	r1, #0
	mov	r0, r4
	bl	pb_read
.LVL127:
	.loc 1 247 12 view .LVU456
.LBE56:
.LBE55:
	.loc 1 282 35 view .LVU457
	b	.L132
.LVL128:
.L133:
	.loc 1 283 27 is_stmt 1 view .LVU458
	.loc 1 283 34 is_stmt 0 view .LVU459
	movs	r2, #4
	b	.L149
.L140:
	.loc 1 277 1 view .LVU460
	movs	r0, #0
.LVL129:
	.loc 1 277 1 view .LVU461
	b	.L132
.LFE9:
	.size	pb_skip_field, .-pb_skip_field
	.section	.text.pb_make_string_substream,"ax",%progbits
	.align	1
	.global	pb_make_string_substream
	.syntax unified
	.thumb
	.thumb_func
	.fpu fpv4-sp-d16
	.type	pb_make_string_substream, %function
pb_make_string_substream:
.LVL130:
.LFB11:
	.loc 1 322 1 is_stmt 1 view -0
	@ args = 0, pretend = 0, frame = 8
	@ frame_needed = 0, uses_anonymous_args = 0
	.loc 1 323 5 view .LVU463
	.loc 1 324 5 view .LVU464
	.loc 1 322 1 is_stmt 0 view .LVU465
	push	{r0, r1, r4, r5, r6, lr}
.LCFI47:
	.loc 1 322 1 view .LVU466
	mov	r5, r1
	.loc 1 324 10 view .LVU467
	add	r1, sp, #4
.LVL131:
	.loc 1 322 1 view .LVU468
	mov	r4, r0
	.loc 1 324 10 view .LVU469
	bl	pb_decode_varint32
.LVL132:
	.loc 1 324 8 view .LVU470
	mov	r6, r0
	cbnz	r0, .L151
.L153:
	.loc 1 325 16 view .LVU471
	movs	r6, #0
.L152:
	.loc 1 334 1 view .LVU472
	mov	r0, r6
	add	sp, sp, #8
.LCFI48:
	@ sp needed
	pop	{r4, r5, r6, pc}
.LVL133:
.L151:
.LCFI49:
	.loc 1 327 5 is_stmt 1 view .LVU473
	.loc 1 327 16 is_stmt 0 view .LVU474
	ldm	r4, {r0, r1, r2, r3}
	stm	r5, {r0, r1, r2, r3}
	.loc 1 328 5 is_stmt 1 view .LVU475
	.loc 1 328 31 is_stmt 0 view .LVU476
	ldr	r1, [sp, #4]
	.loc 1 328 8 view .LVU477
	cmp	r2, r1
	bcc	.L153
	.loc 1 331 5 is_stmt 1 view .LVU478
	.loc 1 331 27 is_stmt 0 view .LVU479
	str	r1, [r5, #8]
	.loc 1 332 5 is_stmt 1 view .LVU480
	.loc 1 332 24 is_stmt 0 view .LVU481
	ldr	r3, [r4, #8]
	subs	r3, r3, r1
	str	r3, [r4, #8]
	.loc 1 333 5 is_stmt 1 view .LVU482
	.loc 1 333 12 is_stmt 0 view .LVU483
	b	.L152
.LFE11:
	.size	pb_make_string_substream, .-pb_make_string_substream
	.section	.text.decode_field,"ax",%progbits
	.align	1
	.syntax unified
	.thumb
	.thumb_func
	.fpu fpv4-sp-d16
	.type	decode_field, %function
decode_field:
.LVL134:
.LFB16:
	.loc 1 647 1 is_stmt 1 view -0
	@ args = 0, pretend = 0, frame = 32
	@ frame_needed = 0, uses_anonymous_args = 0
	.loc 1 658 5 view .LVU485
	.loc 1 647 1 is_stmt 0 view .LVU486
	push	{r4, r5, r6, r7, r8, r9, lr}
.LCFI50:
	.loc 1 658 13 view .LVU487
	ldr	r6, [r2, #4]
	ldrb	r3, [r6, #2]	@ zero_extendqisi2
	.loc 1 658 5 view .LVU488
	ands	r4, r3, #192
	.loc 1 647 1 view .LVU489
	sub	sp, sp, #36
.LCFI51:
	.loc 1 647 1 view .LVU490
	mov	r7, r0
	mov	ip, r1
	mov	r5, r2
	.loc 1 658 5 view .LVU491
	beq	.L155
	cmp	r4, #64
	beq	.L156
.LVL135:
.L184:
.LBB74:
.LBB75:
.LBB76:
	.loc 1 400 21 view .LVU492
	movs	r4, #0
	b	.L157
.LVL136:
.L155:
	.loc 1 400 21 view .LVU493
.LBE76:
.LBE75:
.LBE74:
	.loc 1 661 13 is_stmt 1 view .LVU494
.LBB85:
.LBI74:
	.loc 1 349 25 view .LVU495
.LBB82:
	.loc 1 351 5 view .LVU496
	.loc 1 352 5 view .LVU497
	.loc 1 354 5 view .LVU498
	.loc 1 355 5 view .LVU499
	and	r2, r3, #15
.LVL137:
	.loc 1 355 10 is_stmt 0 view .LVU500
	ldr	r1, .L208
.LVL138:
	.loc 1 355 10 view .LVU501
	and	r3, r3, #48
.LVL139:
	.loc 1 357 5 view .LVU502
	cmp	r3, #32
	.loc 1 355 10 view .LVU503
	ldr	r8, [r1, r2, lsl #2]
.LVL140:
	.loc 1 357 5 is_stmt 1 view .LVU504
	beq	.L158
	bhi	.L159
	cbz	r3, .L205
	cmp	r3, #16
	beq	.L161
.LVL141:
.L157:
	.loc 1 357 5 is_stmt 0 view .LVU505
.LBE82:
.LBE85:
	.loc 1 672 1 view .LVU506
	mov	r0, r4
	add	sp, sp, #36
.LCFI52:
	@ sp needed
	pop	{r4, r5, r6, r7, r8, r9, pc}
.LVL142:
.L159:
.LCFI53:
.LBB86:
.LBB83:
	.loc 1 357 5 view .LVU507
	cmp	r3, #48
	bne	.L157
	.loc 1 407 13 is_stmt 1 view .LVU508
	.loc 1 407 38 is_stmt 0 view .LVU509
	ldr	r3, [r5, #20]
	.loc 1 407 49 view .LVU510
	ldrh	r1, [r6]
	.loc 1 407 38 view .LVU511
	strh	r1, [r3]	@ movhi
	.loc 1 408 13 is_stmt 1 view .LVU512
	.loc 1 408 16 is_stmt 0 view .LVU513
	cmp	r2, #7
	bne	.L169
	.loc 1 412 17 is_stmt 1 view .LVU514
	mov	r1, r4
	ldrh	r2, [r6, #8]
	ldr	r0, [r5, #16]
.LVL143:
	.loc 1 412 17 is_stmt 0 view .LVU515
	bl	memset
.LVL144:
	.loc 1 413 17 is_stmt 1 view .LVU516
	.loc 1 413 72 is_stmt 0 view .LVU517
	ldr	r3, [r5, #4]
	.loc 1 413 17 view .LVU518
	ldr	r1, [r5, #16]
	ldr	r0, [r3, #12]
	bl	pb_message_set_to_defaults
.LVL145:
.L169:
	.loc 1 415 13 is_stmt 1 view .LVU519
	.loc 1 415 20 is_stmt 0 view .LVU520
	ldr	r2, [r5, #16]
	ldr	r1, [r5, #4]
	b	.L207
.LVL146:
.L161:
	.loc 1 363 13 is_stmt 1 view .LVU521
	.loc 1 363 33 is_stmt 0 view .LVU522
	ldr	r3, [r5, #20]
	movs	r2, #1
	strb	r2, [r3]
.L205:
	.loc 1 364 13 is_stmt 1 view .LVU523
	.loc 1 364 20 is_stmt 0 view .LVU524
	ldr	r2, [r5, #16]
	mov	r1, r6
.LVL147:
.L206:
	.loc 1 364 20 view .LVU525
	mov	r3, r8
.LBE83:
.LBE86:
	.loc 1 672 1 view .LVU526
	add	sp, sp, #36
.LCFI54:
	@ sp needed
	pop	{r4, r5, r6, r7, r8, r9, lr}
.LCFI55:
.LVL148:
.LBB87:
.LBB84:
	.loc 1 364 20 view .LVU527
	bx	r3
.LVL149:
.L158:
.LCFI56:
	.loc 1 367 13 is_stmt 1 view .LVU528
	.loc 1 367 16 is_stmt 0 view .LVU529
	cmp	ip, #2
	.loc 1 363 25 view .LVU530
	ldr	r9, [r5, #20]
	.loc 1 367 16 view .LVU531
	bne	.L163
	.loc 1 368 17 view .LVU532
	cmp	r2, #4
	bhi	.L163
.LBB77:
	.loc 1 371 17 is_stmt 1 view .LVU533
.LVL150:
	.loc 1 372 17 view .LVU534
	.loc 1 373 17 view .LVU535
	.loc 1 374 17 view .LVU536
	.loc 1 374 22 is_stmt 0 view .LVU537
	add	r1, sp, #16
	bl	pb_make_string_substream
.LVL151:
	.loc 1 374 20 view .LVU538
	mov	r4, r0
	cmp	r0, #0
	beq	.L184
.L164:
	.loc 1 377 23 is_stmt 1 view .LVU539
	ldr	r3, [sp, #24]
	cbz	r3, .L166
	.loc 1 377 64 is_stmt 0 view .LVU540
	ldr	r1, [r5, #4]
	.loc 1 377 52 view .LVU541
	ldrh	r3, [r9]
	.loc 1 377 49 view .LVU542
	ldrh	r2, [r1, #10]
	cmp	r2, r3
	bhi	.L167
.L166:
.LVL152:
	.loc 1 387 17 is_stmt 1 view .LVU543
.LBB78:
.LBI78:
	.loc 1 336 6 view .LVU544
.LBB79:
	.loc 1 338 5 view .LVU545
	.loc 1 338 19 is_stmt 0 view .LVU546
	ldr	r3, [sp, #20]
	str	r3, [r7, #4]
.LVL153:
	.loc 1 338 19 view .LVU547
.LBE79:
.LBE78:
	.loc 1 389 17 is_stmt 1 view .LVU548
	.loc 1 389 20 is_stmt 0 view .LVU549
	ldr	r3, [sp, #24]
	cmp	r3, #0
	beq	.L157
	b	.L184
.LVL154:
.L167:
.LBB80:
	.loc 1 379 21 is_stmt 1 view .LVU550
	.loc 1 380 21 view .LVU551
	.loc 1 379 65 is_stmt 0 view .LVU552
	ldrh	r0, [r1, #8]
	.loc 1 379 27 view .LVU553
	ldr	r2, [r5, #16]
	.loc 1 380 26 view .LVU554
	mla	r2, r3, r0, r2
	add	r0, sp, #16
	blx	r8
.LVL155:
	.loc 1 380 24 view .LVU555
	cbz	r0, .L183
	.loc 1 385 21 is_stmt 1 view .LVU556
	.loc 1 385 28 is_stmt 0 view .LVU557
	ldrh	r3, [r9]
	adds	r3, r3, #1
	strh	r3, [r9]	@ movhi
	b	.L164
.L183:
	.loc 1 382 32 view .LVU558
	mov	r4, r0
	b	.L166
.LVL156:
.L163:
	.loc 1 382 32 view .LVU559
.LBE80:
.LBE77:
.LBB81:
	.loc 1 397 17 is_stmt 1 view .LVU560
	.loc 1 398 17 view .LVU561
	.loc 1 398 76 is_stmt 0 view .LVU562
	ldrh	r3, [r9]
.LVL157:
	.loc 1 399 17 is_stmt 1 view .LVU563
	.loc 1 399 20 is_stmt 0 view .LVU564
	ldrh	r2, [r6, #10]
	cmp	r2, r3
	bls	.L184
	.loc 1 398 61 view .LVU565
	ldrh	r1, [r6, #8]
	.loc 1 402 17 is_stmt 1 view .LVU566
	.loc 1 398 42 is_stmt 0 view .LVU567
	ldr	r2, [r5, #16]
	.loc 1 402 24 view .LVU568
	adds	r0, r3, #1
.LVL158:
	.loc 1 403 24 view .LVU569
	mla	r2, r3, r1, r2
	.loc 1 402 24 view .LVU570
	strh	r0, [r9]	@ movhi
.LVL159:
	.loc 1 403 17 is_stmt 1 view .LVU571
	.loc 1 403 24 is_stmt 0 view .LVU572
	mov	r1, r6
.LVL160:
.L207:
	.loc 1 403 24 view .LVU573
.LBE81:
	.loc 1 415 20 view .LVU574
	mov	r0, r7
	b	.L206
.LVL161:
.L156:
	.loc 1 415 20 view .LVU575
.LBE84:
.LBE87:
	.loc 1 667 13 is_stmt 1 view .LVU576
.LBB88:
.LBI88:
	.loc 1 599 25 view .LVU577
.LBB89:
	.loc 1 601 5 view .LVU578
	.loc 1 601 20 is_stmt 0 view .LVU579
	ldr	r8, [r2, #16]
.LVL162:
	.loc 1 606 5 is_stmt 1 view .LVU580
	.loc 1 606 12 is_stmt 0 view .LVU581
	mov	r6, r8
.LVL163:
	.loc 1 609 5 is_stmt 1 view .LVU582
	.loc 1 609 8 is_stmt 0 view .LVU583
	ldr	r3, [r6], #4
.LVL164:
	.loc 1 609 8 view .LVU584
	cbnz	r3, .L170
	.loc 1 610 9 is_stmt 1 view .LVU585
.LBE89:
.LBE88:
	.loc 1 672 1 is_stmt 0 view .LVU586
	add	sp, sp, #36
.LCFI57:
	@ sp needed
	pop	{r4, r5, r6, r7, r8, r9, lr}
.LCFI58:
.LVL165:
.LBB103:
.LBB102:
	.loc 1 610 16 view .LVU587
	b	pb_skip_field
.LVL166:
.L170:
.LCFI59:
	.loc 1 612 5 is_stmt 1 view .LVU588
	.loc 1 612 8 is_stmt 0 view .LVU589
	cmp	r1, #2
	bne	.L171
.LBB90:
	.loc 1 614 9 is_stmt 1 view .LVU590
	.loc 1 616 9 view .LVU591
	.loc 1 616 14 is_stmt 0 view .LVU592
	add	r1, sp, #16
.LVL167:
	.loc 1 616 14 view .LVU593
	bl	pb_make_string_substream
.LVL168:
	.loc 1 616 12 view .LVU594
	cmp	r0, #0
	beq	.L184
.L172:
	.loc 1 619 9 is_stmt 1 view .LVU595
	.loc 1 621 13 view .LVU596
	.loc 1 621 18 is_stmt 0 view .LVU597
	ldr	r3, [r8]
	ldr	r1, [r5, #4]
	mov	r2, r6
	add	r0, sp, #16
	blx	r3
.LVL169:
	.loc 1 621 16 view .LVU598
	mov	r4, r0
	cmp	r0, #0
	beq	.L184
	.loc 1 623 17 is_stmt 1 view .LVU599
	.loc 1 623 9 is_stmt 0 view .LVU600
	ldr	r3, [sp, #24]
	cmp	r3, #0
	bne	.L172
	.loc 1 625 9 is_stmt 1 view .LVU601
.LVL170:
.LBB91:
.LBI91:
	.loc 1 336 6 view .LVU602
.LBB92:
	.loc 1 338 5 view .LVU603
	.loc 1 338 19 is_stmt 0 view .LVU604
	ldr	r3, [sp, #20]
	str	r3, [r7, #4]
.LVL171:
	.loc 1 338 19 view .LVU605
.LBE92:
.LBE91:
	.loc 1 626 9 is_stmt 1 view .LVU606
	.loc 1 626 16 is_stmt 0 view .LVU607
	b	.L157
.LVL172:
.L171:
	.loc 1 626 16 view .LVU608
.LBE90:
.LBB93:
	.loc 1 634 9 is_stmt 1 view .LVU609
	.loc 1 635 9 view .LVU610
	.loc 1 636 9 view .LVU611
	.loc 1 638 9 view .LVU612
.LBB94:
.LBI94:
	.loc 1 291 25 view .LVU613
.LBB95:
	.loc 1 293 5 view .LVU614
	.loc 1 294 5 view .LVU615
	cmp	r1, #1
	beq	.L175
	cmp	r1, #5
	beq	.L176
	cmp	r1, #0
	bne	.L184
	mov	r4, r1
	add	r9, sp, #4
.LVL173:
.L180:
	.loc 1 298 13 view .LVU616
	.loc 1 300 17 view .LVU617
	.loc 1 300 24 is_stmt 0 view .LVU618
	adds	r4, r4, #1
.LVL174:
	.loc 1 301 17 is_stmt 1 view .LVU619
	.loc 1 301 20 is_stmt 0 view .LVU620
	cmp	r4, #11
	beq	.L184
	.loc 1 302 17 is_stmt 1 view .LVU621
	.loc 1 302 22 is_stmt 0 view .LVU622
	movs	r2, #1
	mov	r1, r9
	mov	r0, r7
	bl	pb_read
.LVL175:
	.loc 1 302 20 view .LVU623
	cmp	r0, #0
	beq	.L184
	.loc 1 303 21 is_stmt 1 view .LVU624
.LVL176:
	.loc 1 303 13 is_stmt 0 view .LVU625
	ldrsb	r3, [r9], #1
.LVL177:
	.loc 1 303 13 view .LVU626
	cmp	r3, #0
	blt	.L180
.LVL178:
.L181:
	.loc 1 303 13 view .LVU627
.LBE95:
.LBE94:
	.loc 1 640 9 is_stmt 1 view .LVU628
.LBB98:
.LBI98:
	.loc 1 143 14 view .LVU629
.LBB99:
	.loc 1 145 5 view .LVU630
	.loc 1 149 5 view .LVU631
	.loc 1 156 5 view .LVU632
	.loc 1 158 5 view .LVU633
	.loc 1 159 5 view .LVU634
	.loc 1 160 5 view .LVU635
	.loc 1 161 5 view .LVU636
	.loc 1 165 5 view .LVU637
	.loc 1 165 5 is_stmt 0 view .LVU638
.LBE99:
.LBE98:
	.loc 1 640 21 view .LVU639
	ldr	r3, .L208+4
	str	r3, [sp, #16]
	add	r3, sp, #4
	strd	r3, r4, [sp, #20]
	movs	r3, #0
	str	r3, [sp, #28]
	.loc 1 642 9 is_stmt 1 view .LVU640
	.loc 1 642 16 is_stmt 0 view .LVU641
	ldr	r1, [r5, #4]
	ldr	r3, [r8]
	mov	r2, r6
	add	r0, sp, #16
	blx	r3
.LVL179:
	mov	r4, r0
.LVL180:
	.loc 1 642 16 view .LVU642
	b	.L157
.LVL181:
.L175:
.LBB100:
.LBB96:
	.loc 1 307 13 is_stmt 1 view .LVU643
	.loc 1 308 13 view .LVU644
	.loc 1 308 20 is_stmt 0 view .LVU645
	movs	r2, #8
.LVL182:
	.loc 1 308 20 view .LVU646
	add	r1, sp, #4
.LVL183:
	.loc 1 308 20 view .LVU647
	bl	pb_read
.LVL184:
	.loc 1 307 19 view .LVU648
	movs	r4, #8
.LVL185:
.L182:
	.loc 1 307 19 view .LVU649
.LBE96:
.LBE100:
	.loc 1 638 12 view .LVU650
	cmp	r0, #0
	bne	.L181
	b	.L184
.LVL186:
.L176:
.LBB101:
.LBB97:
	.loc 1 311 13 is_stmt 1 view .LVU651
	.loc 1 312 13 view .LVU652
	.loc 1 312 20 is_stmt 0 view .LVU653
	movs	r2, #4
.LVL187:
	.loc 1 312 20 view .LVU654
	add	r1, sp, r2
.LVL188:
	.loc 1 312 20 view .LVU655
	bl	pb_read
.LVL189:
	.loc 1 311 19 view .LVU656
	movs	r4, #4
	.loc 1 312 20 view .LVU657
	b	.L182
.L209:
	.align	2
.L208:
	.word	.LANCHOR0
	.word	buf_read
.LBE97:
.LBE101:
.LBE93:
.LBE102:
.LBE103:
.LFE16:
	.size	decode_field, .-decode_field
	.section	.text.pb_close_string_substream,"ax",%progbits
	.align	1
	.global	pb_close_string_substream
	.syntax unified
	.thumb
	.thumb_func
	.fpu fpv4-sp-d16
	.type	pb_close_string_substream, %function
pb_close_string_substream:
.LVL190:
.LFB12:
	.loc 1 337 1 is_stmt 1 view -0
	@ args = 0, pretend = 0, frame = 0
	@ frame_needed = 0, uses_anonymous_args = 0
	@ link register save eliminated.
	.loc 1 338 5 view .LVU659
	.loc 1 338 30 is_stmt 0 view .LVU660
	ldr	r3, [r1, #4]
	.loc 1 338 19 view .LVU661
	str	r3, [r0, #4]
	.loc 1 343 1 view .LVU662
	bx	lr
.LFE12:
	.size	pb_close_string_substream, .-pb_close_string_substream
	.section	.text.pb_decode_noinit,"ax",%progbits
	.align	1
	.global	pb_decode_noinit
	.syntax unified
	.thumb
	.thumb_func
	.fpu fpv4-sp-d16
	.type	pb_decode_noinit, %function
pb_decode_noinit:
.LVL191:
.LFB23:
	.loc 1 841 1 is_stmt 1 view -0
	@ args = 0, pretend = 0, frame = 64
	@ frame_needed = 0, uses_anonymous_args = 0
	.loc 1 842 5 view .LVU664
	.loc 1 841 1 is_stmt 0 view .LVU665
	push	{r4, r5, r6, r7, r8, r9, r10, fp, lr}
.LCFI60:
	sub	sp, sp, #68
.LCFI61:
	.loc 1 841 1 view .LVU666
	mov	r4, r0
	.loc 1 842 14 view .LVU667
	movs	r6, #0
	.loc 1 849 11 view .LVU668
	add	r0, sp, #16
.LVL192:
	.loc 1 842 14 view .LVU669
	strd	r6, r6, [sp, #8]
	.loc 1 843 5 is_stmt 1 view .LVU670
.LVL193:
	.loc 1 844 5 view .LVU671
	.loc 1 845 5 view .LVU672
	.loc 1 849 5 view .LVU673
	.loc 1 849 11 is_stmt 0 view .LVU674
	bl	pb_field_iter_begin
.LVL194:
	.loc 1 851 5 is_stmt 1 view .LVU675
.L212:
	.loc 1 851 11 view .LVU676
	ldr	r3, [r4, #8]
	cbnz	r3, .L234
.LVL195:
.L235:
.LBB117:
	.loc 1 918 9 discriminator 1 view .LVU677
	.loc 1 919 9 discriminator 1 view .LVU678
	.loc 1 920 9 discriminator 1 view .LVU679
	.loc 1 921 9 discriminator 1 view .LVU680
	.loc 1 922 13 discriminator 1 view .LVU681
	.loc 1 923 23 is_stmt 0 discriminator 1 view .LVU682
	ldrd	r3, r4, [sp, #20]
	.loc 1 924 18 discriminator 1 view .LVU683
	add	r0, sp, #16
	.loc 1 923 23 discriminator 1 view .LVU684
	ldrb	r5, [r3, #2]	@ zero_extendqisi2
.LVL196:
	.loc 1 924 17 is_stmt 1 discriminator 1 view .LVU685
	.loc 1 924 18 is_stmt 0 discriminator 1 view .LVU686
	bl	pb_field_iter_next
.LVL197:
	.loc 1 924 9 discriminator 1 view .LVU687
	cmp	r0, #0
	bne	.L235
	.loc 1 927 9 is_stmt 1 view .LVU688
	.loc 1 927 12 is_stmt 0 view .LVU689
	tst	r5, #48
	bne	.L236
	.loc 1 927 65 discriminator 1 view .LVU690
	ldr	r3, [sp, #20]
	.loc 1 927 54 discriminator 1 view .LVU691
	ldrh	r3, [r3]
	cbz	r3, .L236
	.loc 1 928 13 is_stmt 1 view .LVU692
	.loc 1 928 28 is_stmt 0 view .LVU693
	adds	r4, r4, #1
.LVL198:
.L236:
	.loc 1 930 9 is_stmt 1 view .LVU694
	.loc 1 930 12 is_stmt 0 view .LVU695
	cmp	r4, #0
	beq	.L240
	.loc 1 933 46 view .LVU696
	lsrs	r3, r4, #5
	add	r1, sp, #8
	.loc 1 933 20 view .LVU697
	movs	r2, #0
.LVL199:
.L237:
	.loc 1 933 25 is_stmt 1 discriminator 1 view .LVU698
	.loc 1 933 13 is_stmt 0 discriminator 1 view .LVU699
	cmp	r3, r2
	bne	.L238
	.loc 1 940 13 is_stmt 1 view .LVU700
	.loc 1 940 28 is_stmt 0 view .LVU701
	add	r2, sp, #64
.LVL200:
	.loc 1 940 28 view .LVU702
	add	r3, r2, r3, lsl #2
	.loc 1 940 89 view .LVU703
	and	r4, r4, #31
.LVL201:
	.loc 1 940 16 view .LVU704
	ldr	r3, [r3, #-56]
	.loc 1 940 70 view .LVU705
	rsb	r4, r4, #32
	.loc 1 940 63 view .LVU706
	mov	r0, #-1
	lsrs	r0, r0, r4
	.loc 1 940 16 view .LVU707
	subs	r3, r0, r3
	rsbs	r0, r3, #0
	adcs	r0, r0, r3
	b	.L241
.LVL202:
.L234:
	.loc 1 940 16 view .LVU708
.LBE117:
.LBB118:
	.loc 1 853 9 is_stmt 1 view .LVU709
	.loc 1 854 9 view .LVU710
	.loc 1 855 9 view .LVU711
	.loc 1 857 9 view .LVU712
	.loc 1 857 14 is_stmt 0 view .LVU713
	add	r3, sp, #3
	add	r2, sp, #4
	add	r1, sp, #2
	mov	r0, r4
	bl	pb_decode_tag
.LVL203:
	.loc 1 857 12 view .LVU714
	cbnz	r0, .L213
	.loc 1 859 13 is_stmt 1 view .LVU715
	.loc 1 859 16 is_stmt 0 view .LVU716
	ldrb	r3, [sp, #3]	@ zero_extendqisi2
	cmp	r3, #0
	bne	.L235
.L215:
	.loc 1 862 24 view .LVU717
	movs	r0, #0
.LVL204:
.L241:
	.loc 1 862 24 view .LVU718
.LBE118:
	.loc 1 946 1 view .LVU719
	add	sp, sp, #68
.LCFI62:
	@ sp needed
	pop	{r4, r5, r6, r7, r8, r9, r10, fp, pc}
.LVL205:
.L213:
.LCFI63:
.LBB136:
	.loc 1 865 9 is_stmt 1 view .LVU720
	.loc 1 865 14 is_stmt 0 view .LVU721
	ldr	r1, [sp, #4]
	add	r0, sp, #16
	bl	pb_field_iter_find
.LVL206:
	.loc 1 865 12 view .LVU722
	cmp	r0, #0
	bne	.L216
	.loc 1 868 13 is_stmt 1 view .LVU723
	.loc 1 868 16 is_stmt 0 view .LVU724
	ldr	r3, [sp, #4]
	cmp	r3, r6
	bcc	.L217
	.loc 1 870 17 is_stmt 1 view .LVU725
.LVL207:
.LBB119:
.LBI119:
	.loc 1 737 25 view .LVU726
.LBB120:
	.loc 1 739 5 view .LVU727
	.loc 1 739 23 is_stmt 0 view .LVU728
	ldr	r5, [sp, #20]
.LVL208:
.L219:
	.loc 1 741 5 is_stmt 1 view .LVU729
	.loc 1 742 9 view .LVU730
	.loc 1 742 13 is_stmt 0 view .LVU731
	ldr	r2, [sp, #20]
	.loc 1 742 12 view .LVU732
	ldrb	r3, [r2, #2]	@ zero_extendqisi2
	and	r3, r3, #15
	cmp	r3, #8
	beq	.L218
	.loc 1 744 9 is_stmt 1 view .LVU733
	.loc 1 744 15 is_stmt 0 view .LVU734
	add	r0, sp, #16
.LVL209:
	.loc 1 744 15 view .LVU735
	bl	pb_field_iter_next
.LVL210:
	.loc 1 745 13 is_stmt 1 view .LVU736
	.loc 1 745 5 is_stmt 0 view .LVU737
	ldr	r3, [sp, #20]
	cmp	r5, r3
	bne	.L219
.LBE120:
.LBE119:
	.loc 1 871 43 view .LVU738
	mov	r6, #-1
.LVL211:
.L239:
	.loc 1 875 17 is_stmt 1 view .LVU739
	.loc 1 875 25 is_stmt 0 view .LVU740
	ldr	r7, [sp, #4]
	.loc 1 875 20 view .LVU741
	cmp	r7, r6
	bcc	.L217
.LBB121:
.LBB122:
.LBB123:
	.loc 1 714 21 view .LVU742
	ldr	r3, [sp, #32]
.LBE123:
.LBE122:
	.loc 1 879 26 view .LVU743
	ldrb	r10, [sp, #2]	@ zero_extendqisi2
	.loc 1 877 21 is_stmt 1 view .LVU744
	.loc 1 877 28 is_stmt 0 view .LVU745
	ldr	r8, [r4, #8]
.LVL212:
	.loc 1 879 21 is_stmt 1 view .LVU746
.LBB133:
.LBI122:
	.loc 1 711 25 view .LVU747
.LBB132:
	.loc 1 714 5 view .LVU748
	.loc 1 714 21 is_stmt 0 view .LVU749
	ldr	r5, [r3]
.LVL213:
	.loc 1 715 5 is_stmt 1 view .LVU750
	.loc 1 717 5 view .LVU751
.LBB124:
.LBB125:
.LBB126:
	.loc 1 705 22 is_stmt 0 view .LVU752
	mov	r9, #1
.LVL214:
.L220:
	.loc 1 705 22 view .LVU753
.LBE126:
.LBE125:
.LBE124:
	.loc 1 717 11 is_stmt 1 view .LVU754
	.loc 1 717 46 is_stmt 0 view .LVU755
	ldr	r3, [r4, #8]
	.loc 1 717 11 view .LVU756
	cmp	r5, #0
	beq	.L226
	.loc 1 717 30 view .LVU757
	cmp	r8, r3
	bne	.L212
.LBB131:
	.loc 1 719 9 is_stmt 1 view .LVU758
	.loc 1 720 9 view .LVU759
	.loc 1 720 22 is_stmt 0 view .LVU760
	ldr	r3, [r5]
	.loc 1 720 28 view .LVU761
	ldr	fp, [r3]
	.loc 1 720 12 view .LVU762
	cmp	fp, #0
	beq	.L221
	.loc 1 721 13 is_stmt 1 view .LVU763
	.loc 1 721 22 is_stmt 0 view .LVU764
	mov	r3, r10
	mov	r2, r7
	mov	r1, r5
	mov	r0, r4
	blx	fp
.LVL215:
.L222:
	.loc 1 725 9 is_stmt 1 view .LVU765
	.loc 1 725 12 is_stmt 0 view .LVU766
	cmp	r0, #0
	beq	.L215
.LVL216:
.L224:
	.loc 1 728 9 is_stmt 1 view .LVU767
	.loc 1 728 19 is_stmt 0 view .LVU768
	ldr	r5, [r5, #8]
.LVL217:
	.loc 1 728 19 view .LVU769
	b	.L220
.L221:
	.loc 1 723 13 is_stmt 1 view .LVU770
.LVL218:
.LBB130:
.LBI125:
	.loc 1 695 25 view .LVU771
.LBB129:
	.loc 1 698 5 view .LVU772
	.loc 1 698 23 is_stmt 0 view .LVU773
	ldr	fp, [r3, #8]
.LVL219:
	.loc 1 699 5 is_stmt 1 view .LVU774
	.loc 1 701 5 view .LVU775
	.loc 1 701 14 is_stmt 0 view .LVU776
	ldrh	r3, [fp]
	.loc 1 701 8 view .LVU777
	cmp	r7, r3
	bne	.L224
	.loc 1 704 5 is_stmt 1 view .LVU778
.LVL220:
.LBB127:
.LBI127:
	.loc 1 674 13 view .LVU779
.LBB128:
	.loc 1 679 5 view .LVU780
	.loc 1 680 5 view .LVU781
	.loc 1 680 11 is_stmt 0 view .LVU782
	ldr	r2, [r5, #4]
	mov	r1, fp
	add	r0, sp, #40
.LVL221:
	.loc 1 680 11 view .LVU783
	bl	pb_field_iter_begin
.LVL222:
	.loc 1 681 5 is_stmt 1 view .LVU784
	.loc 1 681 17 is_stmt 0 view .LVU785
	ldr	r3, [r5, #4]
	str	r3, [sp, #56]
	.loc 1 682 5 is_stmt 1 view .LVU786
	.loc 1 682 19 is_stmt 0 view .LVU787
	add	r3, r5, #12
	.loc 1 682 17 view .LVU788
	str	r3, [sp, #60]
	.loc 1 684 5 is_stmt 1 view .LVU789
	.loc 1 684 8 is_stmt 0 view .LVU790
	ldrb	r3, [fp, #2]	@ zero_extendqisi2
	and	r3, r3, #192
	cmp	r3, #128
	.loc 1 689 9 is_stmt 1 view .LVU791
	.loc 1 689 23 is_stmt 0 view .LVU792
	itt	eq
	addeq	r3, r5, #4
	.loc 1 689 21 view .LVU793
	streq	r3, [sp, #56]
.LVL223:
	.loc 1 689 21 view .LVU794
.LBE128:
.LBE127:
	.loc 1 705 5 is_stmt 1 view .LVU795
	.loc 1 706 12 is_stmt 0 view .LVU796
	add	r2, sp, #40
	.loc 1 705 22 view .LVU797
	strb	r9, [r5, #12]
	.loc 1 706 5 is_stmt 1 view .LVU798
	.loc 1 706 12 is_stmt 0 view .LVU799
	mov	r1, r10
	mov	r0, r4
	bl	decode_field
.LVL224:
	.loc 1 706 12 view .LVU800
	b	.L222
.LVL225:
.L216:
	.loc 1 706 12 view .LVU801
.LBE129:
.LBE130:
.LBE131:
.LBE132:
.LBE133:
.LBE121:
	.loc 1 896 9 is_stmt 1 view .LVU802
	.loc 1 896 13 is_stmt 0 view .LVU803
	ldr	r3, [sp, #20]
	.loc 1 896 12 view .LVU804
	ldrb	r3, [r3, #2]	@ zero_extendqisi2
	tst	r3, #48
	bne	.L229
	.loc 1 897 20 view .LVU805
	ldr	r2, [sp, #24]
	.loc 1 897 13 view .LVU806
	cmp	r2, #63
	bhi	.L229
.LBB134:
	.loc 1 899 13 is_stmt 1 view .LVU807
.LVL226:
	.loc 1 900 13 view .LVU808
	.loc 1 900 57 is_stmt 0 view .LVU809
	lsrs	r1, r2, #5
	add	r3, sp, #64
	add	r1, r3, r1, lsl #2
	.loc 1 899 71 view .LVU810
	and	r2, r2, #31
.LVL227:
	.loc 1 899 22 view .LVU811
	movs	r3, #1
	lsls	r3, r3, r2
.LVL228:
	.loc 1 900 57 view .LVU812
	ldr	r2, [r1, #-56]
	orrs	r3, r3, r2
.LVL229:
	.loc 1 900 57 view .LVU813
	str	r3, [r1, #-56]
.LVL230:
.L229:
	.loc 1 900 57 view .LVU814
.LBE134:
	.loc 1 903 9 is_stmt 1 view .LVU815
	.loc 1 903 18 is_stmt 0 view .LVU816
	ldr	r5, [r4, #12]
	.loc 1 903 11 view .LVU817
	cbz	r5, .L230
	.loc 1 905 13 is_stmt 1 view .LVU818
	ldrb	r2, [sp, #2]	@ zero_extendqisi2
	ldr	r1, [sp, #4]
	add	r3, sp, #16
	mov	r0, r4
	blx	r5
.LVL231:
.L230:
	.loc 1 908 9 view .LVU819
	.loc 1 908 14 is_stmt 0 view .LVU820
	ldrb	r1, [sp, #2]	@ zero_extendqisi2
	add	r2, sp, #16
	mov	r0, r4
	bl	decode_field
.LVL232:
	b	.L256
.LVL233:
.L238:
	.loc 1 908 14 view .LVU821
.LBE136:
.LBB137:
	.loc 1 935 17 is_stmt 1 view .LVU822
	.loc 1 935 32 is_stmt 0 view .LVU823
	ldr	r5, [r1], #4
	.loc 1 935 20 view .LVU824
	adds	r5, r5, #1
	bne	.L241
	.loc 1 933 53 is_stmt 1 discriminator 2 view .LVU825
	.loc 1 933 54 is_stmt 0 discriminator 2 view .LVU826
	adds	r2, r2, #1
.LVL234:
	.loc 1 933 54 discriminator 2 view .LVU827
	b	.L237
.LVL235:
.L240:
	.loc 1 933 54 discriminator 2 view .LVU828
.LBE137:
	.loc 1 945 12 view .LVU829
	movs	r0, #1
	b	.L241
.LVL236:
.L226:
.LBB138:
.LBB135:
	.loc 1 882 21 is_stmt 1 view .LVU830
	.loc 1 882 24 is_stmt 0 view .LVU831
	cmp	r8, r3
	bne	.L212
.LVL237:
.L217:
	.loc 1 882 24 view .LVU832
.LBE135:
	.loc 1 891 13 is_stmt 1 view .LVU833
	.loc 1 891 18 is_stmt 0 view .LVU834
	ldrb	r1, [sp, #2]	@ zero_extendqisi2
	mov	r0, r4
	bl	pb_skip_field
.LVL238:
.L256:
	.loc 1 908 12 view .LVU835
	cmp	r0, #0
	bne	.L212
	b	.L215
.LVL239:
.L218:
	.loc 1 873 21 is_stmt 1 view .LVU836
	.loc 1 873 43 is_stmt 0 view .LVU837
	ldrh	r6, [r2]
.LVL240:
	.loc 1 873 43 view .LVU838
	b	.L239
.LBE138:
.LFE23:
	.size	pb_decode_noinit, .-pb_decode_noinit
	.section	.text.pb_decode,"ax",%progbits
	.align	1
	.global	pb_decode
	.syntax unified
	.thumb
	.thumb_func
	.fpu fpv4-sp-d16
	.type	pb_decode, %function
pb_decode:
.LVL241:
.LFB24:
	.loc 1 949 1 is_stmt 1 view -0
	@ args = 0, pretend = 0, frame = 8
	@ frame_needed = 0, uses_anonymous_args = 0
	.loc 1 950 5 view .LVU840
	.loc 1 951 5 view .LVU841
	.loc 1 949 1 is_stmt 0 view .LVU842
	push	{r0, r1, r2, r4, r5, lr}
.LCFI64:
	.loc 1 949 1 view .LVU843
	mov	r4, r1
	mov	r5, r0
	.loc 1 951 5 view .LVU844
	mov	r1, r2
.LVL242:
	.loc 1 951 5 view .LVU845
	mov	r0, r4
.LVL243:
	.loc 1 951 5 view .LVU846
	str	r2, [sp, #4]
	bl	pb_message_set_to_defaults
.LVL244:
	.loc 1 952 5 is_stmt 1 view .LVU847
	.loc 1 952 14 is_stmt 0 view .LVU848
	ldr	r2, [sp, #4]
	mov	r1, r4
	mov	r0, r5
	.loc 1 960 1 view .LVU849
	add	sp, sp, #12
.LCFI65:
	@ sp needed
	pop	{r4, r5, lr}
.LCFI66:
.LVL245:
	.loc 1 952 14 view .LVU850
	b	pb_decode_noinit
.LVL246:
	.loc 1 952 14 view .LVU851
.LFE24:
	.size	pb_decode, .-pb_decode
	.section	.text.pb_dec_submessage,"ax",%progbits
	.align	1
	.syntax unified
	.thumb
	.thumb_func
	.fpu fpv4-sp-d16
	.type	pb_dec_submessage, %function
pb_dec_submessage:
.LVL247:
.LFB36:
	.loc 1 1320 1 is_stmt 1 view -0
	@ args = 0, pretend = 0, frame = 24
	@ frame_needed = 0, uses_anonymous_args = 0
	.loc 1 1321 5 view .LVU853
	.loc 1 1322 5 view .LVU854
	.loc 1 1323 5 view .LVU855
	.loc 1 1320 1 is_stmt 0 view .LVU856
	push	{r4, r5, r6, lr}
.LCFI67:
	sub	sp, sp, #24
.LCFI68:
	.loc 1 1323 23 view .LVU857
	ldr	r6, [r1, #12]
.LVL248:
	.loc 1 1325 5 is_stmt 1 view .LVU858
	.loc 1 1320 1 is_stmt 0 view .LVU859
	str	r2, [sp, #4]
	mov	r4, r1
	.loc 1 1325 10 view .LVU860
	add	r1, sp, #8
.LVL249:
	.loc 1 1320 1 view .LVU861
	mov	r5, r0
	.loc 1 1325 10 view .LVU862
	bl	pb_make_string_substream
.LVL250:
	.loc 1 1325 8 view .LVU863
	cbz	r0, .L259
	.loc 1 1328 5 is_stmt 1 view .LVU864
	.loc 1 1328 8 is_stmt 0 view .LVU865
	ldr	r0, [r4, #12]
	cbz	r0, .L259
	.loc 1 1333 5 is_stmt 1 view .LVU866
	.loc 1 1333 8 is_stmt 0 view .LVU867
	ldrb	r3, [r4, #2]	@ zero_extendqisi2
	ldr	r2, [sp, #4]
	and	r3, r3, #48
	cmp	r3, #32
	.loc 1 1334 18 view .LVU868
	mov	r1, r6
	add	r0, sp, #8
	.loc 1 1333 8 view .LVU869
	bne	.L260
	.loc 1 1334 9 is_stmt 1 view .LVU870
	.loc 1 1334 18 is_stmt 0 view .LVU871
	bl	pb_decode
.LVL251:
.L261:
	.loc 1 1338 5 is_stmt 1 view .LVU872
.LBB139:
.LBI139:
	.loc 1 336 6 view .LVU873
.LBB140:
	.loc 1 338 5 view .LVU874
	.loc 1 338 19 is_stmt 0 view .LVU875
	ldr	r3, [sp, #12]
	str	r3, [r5, #4]
.LVL252:
	.loc 1 338 19 view .LVU876
.LBE140:
.LBE139:
	.loc 1 1339 5 is_stmt 1 view .LVU877
.L259:
	.loc 1 1340 1 is_stmt 0 view .LVU878
	add	sp, sp, #24
.LCFI69:
	@ sp needed
	pop	{r4, r5, r6, pc}
.LVL253:
.L260:
.LCFI70:
	.loc 1 1336 9 is_stmt 1 view .LVU879
	.loc 1 1336 18 is_stmt 0 view .LVU880
	bl	pb_decode_noinit
.LVL254:
	.loc 1 1336 18 view .LVU881
	b	.L261
.LFE36:
	.size	pb_dec_submessage, .-pb_dec_submessage
	.section	.text.pb_decode_delimited,"ax",%progbits
	.align	1
	.global	pb_decode_delimited
	.syntax unified
	.thumb
	.thumb_func
	.fpu fpv4-sp-d16
	.type	pb_decode_delimited, %function
pb_decode_delimited:
.LVL255:
.LFB25:
	.loc 1 963 1 is_stmt 1 view -0
	@ args = 0, pretend = 0, frame = 24
	@ frame_needed = 0, uses_anonymous_args = 0
	.loc 1 964 5 view .LVU883
	.loc 1 965 5 view .LVU884
	.loc 1 967 5 view .LVU885
	.loc 1 963 1 is_stmt 0 view .LVU886
	push	{r4, r5, lr}
.LCFI71:
	sub	sp, sp, #28
.LCFI72:
	.loc 1 963 1 view .LVU887
	mov	r5, r1
	.loc 1 967 10 view .LVU888
	add	r1, sp, #8
.LVL256:
	.loc 1 963 1 view .LVU889
	mov	r4, r0
	str	r2, [sp, #4]
	.loc 1 967 10 view .LVU890
	bl	pb_make_string_substream
.LVL257:
	.loc 1 967 8 view .LVU891
	cbz	r0, .L267
	.loc 1 970 5 is_stmt 1 view .LVU892
	.loc 1 970 14 is_stmt 0 view .LVU893
	ldr	r2, [sp, #4]
	mov	r1, r5
	add	r0, sp, #8
	bl	pb_decode
.LVL258:
	.loc 1 971 5 is_stmt 1 view .LVU894
.LBB141:
.LBI141:
	.loc 1 336 6 view .LVU895
.LBB142:
	.loc 1 338 5 view .LVU896
	.loc 1 338 19 is_stmt 0 view .LVU897
	ldr	r3, [sp, #12]
	str	r3, [r4, #4]
.LVL259:
	.loc 1 338 19 view .LVU898
.LBE142:
.LBE141:
	.loc 1 972 5 is_stmt 1 view .LVU899
.L267:
	.loc 1 973 1 is_stmt 0 view .LVU900
	add	sp, sp, #28
.LCFI73:
	@ sp needed
	pop	{r4, r5, pc}
	.loc 1 973 1 view .LVU901
.LFE25:
	.size	pb_decode_delimited, .-pb_decode_delimited
	.section	.text.pb_decode_svarint,"ax",%progbits
	.align	1
	.global	pb_decode_svarint
	.syntax unified
	.thumb
	.thumb_func
	.fpu fpv4-sp-d16
	.type	pb_decode_svarint, %function
pb_decode_svarint:
.LVL260:
.LFB26:
	.loc 1 1104 1 is_stmt 1 view -0
	@ args = 0, pretend = 0, frame = 8
	@ frame_needed = 0, uses_anonymous_args = 0
	.loc 1 1105 5 view .LVU903
	.loc 1 1106 5 view .LVU904
	.loc 1 1104 1 is_stmt 0 view .LVU905
	push	{r0, r1, r4, lr}
.LCFI74:
	.loc 1 1104 1 view .LVU906
	mov	r4, r1
	.loc 1 1106 10 view .LVU907
	mov	r1, sp
.LVL261:
	.loc 1 1106 10 view .LVU908
	bl	pb_decode_varint
.LVL262:
	.loc 1 1106 8 view .LVU909
	cbz	r0, .L272
	.loc 1 1109 5 is_stmt 1 view .LVU910
	.loc 1 1109 15 is_stmt 0 view .LVU911
	ldrd	r1, r3, [sp]
	.loc 1 1110 35 view .LVU912
	lsrs	r2, r1, #1
	orr	r2, r2, r3, lsl #31
	.loc 1 1109 8 view .LVU913
	lsls	r1, r1, #31
	.loc 1 1110 9 is_stmt 1 view .LVU914
	.loc 1 1110 35 is_stmt 0 view .LVU915
	lsr	r3, r3, #1
	.loc 1 1110 27 view .LVU916
	itt	mi
	mvnmi	r2, r2
	mvnmi	r3, r3
	.loc 1 1112 9 is_stmt 1 view .LVU917
	.loc 1 1112 15 is_stmt 0 view .LVU918
	strd	r2, r3, [r4]
.L272:
	.loc 1 1115 1 view .LVU919
	add	sp, sp, #8
.LCFI75:
	@ sp needed
	pop	{r4, pc}
	.loc 1 1115 1 view .LVU920
.LFE26:
	.size	pb_decode_svarint, .-pb_decode_svarint
	.section	.text.pb_dec_svarint,"ax",%progbits
	.align	1
	.syntax unified
	.thumb
	.thumb_func
	.fpu fpv4-sp-d16
	.type	pb_dec_svarint, %function
pb_dec_svarint:
.LVL263:
.LFB31:
	.loc 1 1212 1 is_stmt 1 view -0
	@ args = 0, pretend = 0, frame = 8
	@ frame_needed = 0, uses_anonymous_args = 0
	.loc 1 1213 5 view .LVU922
	.loc 1 1214 5 view .LVU923
	.loc 1 1212 1 is_stmt 0 view .LVU924
	push	{r0, r1, r2, r4, r5, lr}
.LCFI76:
	.loc 1 1212 1 view .LVU925
	mov	r5, r1
	.loc 1 1214 10 view .LVU926
	mov	r1, sp
.LVL264:
	.loc 1 1212 1 view .LVU927
	mov	r4, r2
	.loc 1 1214 10 view .LVU928
	bl	pb_decode_svarint
.LVL265:
	.loc 1 1214 8 view .LVU929
	cbz	r0, .L278
	.loc 1 1218 5 is_stmt 1 view .LVU930
	.loc 1 1218 14 is_stmt 0 view .LVU931
	ldrh	r3, [r5, #8]
	.loc 1 1218 8 view .LVU932
	cmp	r3, #8
	bne	.L279
	.loc 1 1219 9 is_stmt 1 view .LVU933
	.loc 1 1219 35 is_stmt 0 view .LVU934
	ldrd	r3, r2, [sp]
	strd	r3, r2, [r4]
.LVL266:
.L280:
	.loc 1 1229 5 is_stmt 1 view .LVU935
	.loc 1 1229 8 is_stmt 0 view .LVU936
	ldrd	r0, r1, [sp]
	cmp	r1, r2
	it	eq
	cmpeq	r0, r3
	ite	eq
	moveq	r0, #1
	movne	r0, #0
.LVL267:
.L278:
	.loc 1 1233 1 view .LVU937
	add	sp, sp, #12
.LCFI77:
	@ sp needed
	pop	{r4, r5, pc}
.LVL268:
.L279:
.LCFI78:
	.loc 1 1220 10 is_stmt 1 view .LVU938
	.loc 1 1220 13 is_stmt 0 view .LVU939
	cmp	r3, #4
	bne	.L281
	.loc 1 1221 9 is_stmt 1 view .LVU940
	.loc 1 1221 37 is_stmt 0 view .LVU941
	ldr	r3, [sp]
	.loc 1 1221 35 view .LVU942
	str	r3, [r4]
.L287:
	.loc 1 1225 17 view .LVU943
	asrs	r2, r3, #31
	.loc 1 1225 17 view .LVU944
	b	.L280
.L281:
	.loc 1 1222 10 is_stmt 1 view .LVU945
	.loc 1 1222 13 is_stmt 0 view .LVU946
	cmp	r3, #2
	bne	.L282
	.loc 1 1223 9 is_stmt 1 view .LVU947
	.loc 1 1223 43 is_stmt 0 view .LVU948
	ldrsh	r3, [sp]
	.loc 1 1223 41 view .LVU949
	strh	r3, [r4]	@ movhi
	b	.L287
.L282:
	.loc 1 1224 10 is_stmt 1 view .LVU950
	.loc 1 1224 13 is_stmt 0 view .LVU951
	cmp	r3, #1
	bne	.L283
	.loc 1 1225 9 is_stmt 1 view .LVU952
	.loc 1 1225 42 is_stmt 0 view .LVU953
	ldrsb	r3, [sp]
	.loc 1 1225 40 view .LVU954
	strb	r3, [r4]
	b	.L287
.L283:
	.loc 1 1215 16 view .LVU955
	movs	r0, #0
	b	.L278
.LFE31:
	.size	pb_dec_svarint, .-pb_dec_svarint
	.section	.text.pb_decode_fixed32,"ax",%progbits
	.align	1
	.global	pb_decode_fixed32
	.syntax unified
	.thumb
	.thumb_func
	.fpu fpv4-sp-d16
	.type	pb_decode_fixed32, %function
pb_decode_fixed32:
.LVL269:
.LFB27:
	.loc 1 1118 1 is_stmt 1 view -0
	@ args = 0, pretend = 0, frame = 8
	@ frame_needed = 0, uses_anonymous_args = 0
	.loc 1 1119 5 view .LVU957
	.loc 1 1121 5 view .LVU958
	.loc 1 1118 1 is_stmt 0 view .LVU959
	push	{r0, r1, r4, lr}
.LCFI79:
	.loc 1 1121 10 view .LVU960
	movs	r2, #4
	.loc 1 1118 1 view .LVU961
	mov	r4, r1
	.loc 1 1121 10 view .LVU962
	add	r1, sp, r2
.LVL270:
	.loc 1 1121 10 view .LVU963
	bl	pb_read
.LVL271:
	.loc 1 1121 8 view .LVU964
	cbz	r0, .L289
	.loc 1 1124 5 is_stmt 1 view .LVU965
	.loc 1 1124 22 is_stmt 0 view .LVU966
	ldr	r3, [sp, #4]
	str	r3, [r4]
	.loc 1 1128 5 is_stmt 1 view .LVU967
.L289:
	.loc 1 1129 1 is_stmt 0 view .LVU968
	add	sp, sp, #8
.LCFI80:
	@ sp needed
	pop	{r4, pc}
	.loc 1 1129 1 view .LVU969
.LFE27:
	.size	pb_decode_fixed32, .-pb_decode_fixed32
	.section	.text.pb_dec_fixed32,"ax",%progbits
	.align	1
	.syntax unified
	.thumb
	.thumb_func
	.fpu fpv4-sp-d16
	.type	pb_dec_fixed32, %function
pb_dec_fixed32:
.LVL272:
.LFB32:
	.loc 1 1236 1 is_stmt 1 view -0
	@ args = 0, pretend = 0, frame = 0
	@ frame_needed = 0, uses_anonymous_args = 0
	@ link register save eliminated.
	.loc 1 1237 5 view .LVU971
	.loc 1 1238 5 view .LVU972
	.loc 1 1238 12 is_stmt 0 view .LVU973
	mov	r1, r2
.LVL273:
	.loc 1 1238 12 view .LVU974
	b	pb_decode_fixed32
.LVL274:
	.loc 1 1238 12 view .LVU975
.LFE32:
	.size	pb_dec_fixed32, .-pb_dec_fixed32
	.section	.text.pb_decode_fixed64,"ax",%progbits
	.align	1
	.global	pb_decode_fixed64
	.syntax unified
	.thumb
	.thumb_func
	.fpu fpv4-sp-d16
	.type	pb_decode_fixed64, %function
pb_decode_fixed64:
.LVL275:
.LFB28:
	.loc 1 1132 1 is_stmt 1 view -0
	@ args = 0, pretend = 0, frame = 8
	@ frame_needed = 0, uses_anonymous_args = 0
	.loc 1 1133 5 view .LVU977
	.loc 1 1135 5 view .LVU978
	.loc 1 1132 1 is_stmt 0 view .LVU979
	push	{r0, r1, r4, lr}
.LCFI81:
	.loc 1 1135 10 view .LVU980
	movs	r2, #8
	.loc 1 1132 1 view .LVU981
	mov	r4, r1
	.loc 1 1135 10 view .LVU982
	mov	r1, sp
.LVL276:
	.loc 1 1135 10 view .LVU983
	bl	pb_read
.LVL277:
	.loc 1 1135 8 view .LVU984
	cbz	r0, .L295
	.loc 1 1138 5 is_stmt 1 view .LVU985
	.loc 1 1138 22 is_stmt 0 view .LVU986
	ldrd	r2, [sp]
	strd	r2, [r4]
	.loc 1 1147 5 is_stmt 1 view .LVU987
.L295:
	.loc 1 1148 1 is_stmt 0 view .LVU988
	add	sp, sp, #8
.LCFI82:
	@ sp needed
	pop	{r4, pc}
	.loc 1 1148 1 view .LVU989
.LFE28:
	.size	pb_decode_fixed64, .-pb_decode_fixed64
	.section	.text.pb_dec_fixed64,"ax",%progbits
	.align	1
	.syntax unified
	.thumb
	.thumb_func
	.fpu fpv4-sp-d16
	.type	pb_dec_fixed64, %function
pb_dec_fixed64:
.LVL278:
.LFB33:
	.loc 1 1242 1 is_stmt 1 view -0
	@ args = 0, pretend = 0, frame = 0
	@ frame_needed = 0, uses_anonymous_args = 0
	@ link register save eliminated.
	.loc 1 1243 5 view .LVU991
	.loc 1 1244 5 view .LVU992
	.loc 1 1244 12 is_stmt 0 view .LVU993
	mov	r1, r2
.LVL279:
	.loc 1 1244 12 view .LVU994
	b	pb_decode_fixed64
.LVL280:
	.loc 1 1244 12 view .LVU995
.LFE33:
	.size	pb_dec_fixed64, .-pb_dec_fixed64
	.section	.rodata.PB_DECODERS,"a"
	.align	2
	.set	.LANCHOR0,. + 0
	.type	PB_DECODERS, %object
	.size	PB_DECODERS, 36
PB_DECODERS:
	.word	pb_dec_varint
	.word	pb_dec_uvarint
	.word	pb_dec_svarint
	.word	pb_dec_fixed32
	.word	pb_dec_fixed64
	.word	pb_dec_bytes
	.word	pb_dec_string
	.word	pb_dec_submessage
	.word	0
	.section	.debug_frame,"",%progbits
.Lframe0:
	.4byte	.LECIE0-.LSCIE0
.LSCIE0:
	.4byte	0xffffffff
	.byte	0x3
	.ascii	"\000"
	.uleb128 0x1
	.sleb128 -4
	.uleb128 0xe
	.byte	0xc
	.uleb128 0xd
	.uleb128 0
	.align	2
.LECIE0:
.LSFDE0:
	.4byte	.LEFDE0-.LASFDE0
.LASFDE0:
	.4byte	.Lframe0
	.4byte	.LFB0
	.4byte	.LFE0-.LFB0
	.align	2
.LEFDE0:
.LSFDE2:
	.4byte	.LEFDE2-.LASFDE2
.LASFDE2:
	.4byte	.Lframe0
	.4byte	.LFB21
	.4byte	.LFE21-.LFB21
	.byte	0x4
	.4byte	.LCFI0-.LFB21
	.byte	0xe
	.uleb128 0x10
	.byte	0x84
	.uleb128 0x4
	.byte	0x85
	.uleb128 0x3
	.byte	0x86
	.uleb128 0x2
	.byte	0x8e
	.uleb128 0x1
	.byte	0x4
	.4byte	.LCFI1-.LCFI0
	.byte	0xe
	.uleb128 0x28
	.byte	0x4
	.4byte	.LCFI2-.LCFI1
	.byte	0xa
	.byte	0xe
	.uleb128 0x10
	.byte	0x4
	.4byte	.LCFI3-.LCFI2
	.byte	0xb
	.byte	0x4
	.4byte	.LCFI4-.LCFI3
	.byte	0xa
	.byte	0xe
	.uleb128 0x10
	.byte	0x4
	.4byte	.LCFI5-.LCFI4
	.byte	0xce
	.byte	0xc6
	.byte	0xc5
	.byte	0xc4
	.byte	0xe
	.uleb128 0
	.byte	0x4
	.4byte	.LCFI6-.LCFI5
	.byte	0xb
	.byte	0x4
	.4byte	.LCFI7-.LCFI6
	.byte	0xa
	.byte	0xe
	.uleb128 0x10
	.byte	0x4
	.4byte	.LCFI8-.LCFI7
	.byte	0xce
	.byte	0xc6
	.byte	0xc5
	.byte	0xc4
	.byte	0xe
	.uleb128 0
	.byte	0x4
	.4byte	.LCFI9-.LCFI8
	.byte	0xb
	.byte	0x4
	.4byte	.LCFI10-.LCFI9
	.byte	0xa
	.byte	0xe
	.uleb128 0x10
	.byte	0x4
	.4byte	.LCFI11-.LCFI10
	.byte	0xce
	.byte	0xc6
	.byte	0xc5
	.byte	0xc4
	.byte	0xe
	.uleb128 0
	.byte	0x4
	.4byte	.LCFI12-.LCFI11
	.byte	0xb
	.align	2
.LEFDE2:
.LSFDE4:
	.4byte	.LEFDE4-.LASFDE4
.LASFDE4:
	.4byte	.Lframe0
	.4byte	.LFB22
	.4byte	.LFE22-.LFB22
	.byte	0x4
	.4byte	.LCFI13-.LFB22
	.byte	0xe
	.uleb128 0x20
	.byte	0x8e
	.uleb128 0x1
	.byte	0x4
	.4byte	.LCFI14-.LCFI13
	.byte	0xe
	.uleb128 0x4
	.align	2
.LEFDE4:
.LSFDE6:
	.4byte	.LEFDE6-.LASFDE6
.LASFDE6:
	.4byte	.Lframe0
	.4byte	.LFB2
	.4byte	.LFE2-.LFB2
	.byte	0x4
	.4byte	.LCFI15-.LFB2
	.byte	0xe
	.uleb128 0x8
	.byte	0x84
	.uleb128 0x2
	.byte	0x8e
	.uleb128 0x1
	.align	2
.LEFDE6:
.LSFDE8:
	.4byte	.LEFDE8-.LASFDE8
.LASFDE8:
	.4byte	.Lframe0
	.4byte	.LFB4
	.4byte	.LFE4-.LFB4
	.byte	0x4
	.4byte	.LCFI16-.LFB4
	.byte	0xe
	.uleb128 0x20
	.byte	0x84
	.uleb128 0x6
	.byte	0x85
	.uleb128 0x5
	.byte	0x86
	.uleb128 0x4
	.byte	0x87
	.uleb128 0x3
	.byte	0x88
	.uleb128 0x2
	.byte	0x8e
	.uleb128 0x1
	.byte	0x4
	.4byte	.LCFI17-.LCFI16
	.byte	0xa
	.byte	0xe
	.uleb128 0x18
	.byte	0x4
	.4byte	.LCFI18-.LCFI17
	.byte	0xb
	.align	2
.LEFDE8:
.LSFDE10:
	.4byte	.LEFDE10-.LASFDE10
.LASFDE10:
	.4byte	.Lframe0
	.4byte	.LFB1
	.4byte	.LFE1-.LFB1
	.byte	0x4
	.4byte	.LCFI19-.LFB1
	.byte	0xe
	.uleb128 0xc
	.byte	0x84
	.uleb128 0x3
	.byte	0x85
	.uleb128 0x2
	.byte	0x8e
	.uleb128 0x1
	.byte	0x4
	.4byte	.LCFI20-.LCFI19
	.byte	0xe
	.uleb128 0x20
	.byte	0x4
	.4byte	.LCFI21-.LCFI20
	.byte	0xa
	.byte	0xe
	.uleb128 0xc
	.byte	0x4
	.4byte	.LCFI22-.LCFI21
	.byte	0xb
	.align	2
.LEFDE10:
.LSFDE12:
	.4byte	.LEFDE12-.LASFDE12
.LASFDE12:
	.4byte	.Lframe0
	.4byte	.LFB35
	.4byte	.LFE35-.LFB35
	.byte	0x4
	.4byte	.LCFI23-.LFB35
	.byte	0xe
	.uleb128 0x20
	.byte	0x84
	.uleb128 0x5
	.byte	0x85
	.uleb128 0x4
	.byte	0x86
	.uleb128 0x3
	.byte	0x87
	.uleb128 0x2
	.byte	0x8e
	.uleb128 0x1
	.byte	0x4
	.4byte	.LCFI24-.LCFI23
	.byte	0xe
	.uleb128 0x14
	.align	2
.LEFDE12:
.LSFDE14:
	.4byte	.LEFDE14-.LASFDE14
.LASFDE14:
	.4byte	.Lframe0
	.4byte	.LFB34
	.4byte	.LFE34-.LFB34
	.byte	0x4
	.4byte	.LCFI25-.LFB34
	.byte	0xe
	.uleb128 0x18
	.byte	0x84
	.uleb128 0x4
	.byte	0x85
	.uleb128 0x3
	.byte	0x86
	.uleb128 0x2
	.byte	0x8e
	.uleb128 0x1
	.byte	0x4
	.4byte	.LCFI26-.LCFI25
	.byte	0xa
	.byte	0xe
	.uleb128 0x10
	.byte	0x4
	.4byte	.LCFI27-.LCFI26
	.byte	0xb
	.align	2
.LEFDE14:
.LSFDE16:
	.4byte	.LEFDE16-.LASFDE16
.LASFDE16:
	.4byte	.Lframe0
	.4byte	.LFB3
	.4byte	.LFE3-.LFB3
	.byte	0x4
	.4byte	.LCFI28-.LFB3
	.byte	0xe
	.uleb128 0x8
	.byte	0x84
	.uleb128 0x2
	.byte	0x8e
	.uleb128 0x1
	.align	2
.LEFDE16:
.LSFDE18:
	.4byte	.LEFDE18-.LASFDE18
.LASFDE18:
	.4byte	.Lframe0
	.4byte	.LFB5
	.4byte	.LFE5-.LFB5
	.byte	0x4
	.4byte	.LCFI29-.LFB5
	.byte	0xe
	.uleb128 0x20
	.byte	0x84
	.uleb128 0x6
	.byte	0x85
	.uleb128 0x5
	.byte	0x86
	.uleb128 0x4
	.byte	0x87
	.uleb128 0x3
	.byte	0x88
	.uleb128 0x2
	.byte	0x8e
	.uleb128 0x1
	.byte	0x4
	.4byte	.LCFI30-.LCFI29
	.byte	0xa
	.byte	0xe
	.uleb128 0x18
	.byte	0x4
	.4byte	.LCFI31-.LCFI30
	.byte	0xb
	.align	2
.LEFDE18:
.LSFDE20:
	.4byte	.LEFDE20-.LASFDE20
.LASFDE20:
	.4byte	.Lframe0
	.4byte	.LFB30
	.4byte	.LFE30-.LFB30
	.byte	0x4
	.4byte	.LCFI32-.LFB30
	.byte	0xe
	.uleb128 0x18
	.byte	0x84
	.uleb128 0x3
	.byte	0x85
	.uleb128 0x2
	.byte	0x8e
	.uleb128 0x1
	.byte	0x4
	.4byte	.LCFI33-.LCFI32
	.byte	0xa
	.byte	0xe
	.uleb128 0xc
	.byte	0x4
	.4byte	.LCFI34-.LCFI33
	.byte	0xb
	.align	2
.LEFDE20:
.LSFDE22:
	.4byte	.LEFDE22-.LASFDE22
.LASFDE22:
	.4byte	.Lframe0
	.4byte	.LFB29
	.4byte	.LFE29-.LFB29
	.byte	0x4
	.4byte	.LCFI35-.LFB29
	.byte	0xe
	.uleb128 0x18
	.byte	0x84
	.uleb128 0x3
	.byte	0x85
	.uleb128 0x2
	.byte	0x8e
	.uleb128 0x1
	.byte	0x4
	.4byte	.LCFI36-.LCFI35
	.byte	0xa
	.byte	0xe
	.uleb128 0xc
	.byte	0x4
	.4byte	.LCFI37-.LCFI36
	.byte	0xb
	.align	2
.LEFDE22:
.LSFDE24:
	.4byte	.LEFDE24-.LASFDE24
.LASFDE24:
	.4byte	.Lframe0
	.4byte	.LFB8
	.4byte	.LFE8-.LFB8
	.byte	0x4
	.4byte	.LCFI38-.LFB8
	.byte	0xe
	.uleb128 0x20
	.byte	0x84
	.uleb128 0x5
	.byte	0x85
	.uleb128 0x4
	.byte	0x86
	.uleb128 0x3
	.byte	0x87
	.uleb128 0x2
	.byte	0x8e
	.uleb128 0x1
	.byte	0x4
	.4byte	.LCFI39-.LCFI38
	.byte	0xa
	.byte	0xe
	.uleb128 0x14
	.byte	0x4
	.4byte	.LCFI40-.LCFI39
	.byte	0xb
	.align	2
.LEFDE24:
.LSFDE26:
	.4byte	.LEFDE26-.LASFDE26
.LASFDE26:
	.4byte	.Lframe0
	.4byte	.LFB9
	.4byte	.LFE9-.LFB9
	.byte	0x4
	.4byte	.LCFI41-.LFB9
	.byte	0xe
	.uleb128 0x10
	.byte	0x84
	.uleb128 0x2
	.byte	0x8e
	.uleb128 0x1
	.byte	0x4
	.4byte	.LCFI42-.LCFI41
	.byte	0xa
	.byte	0xe
	.uleb128 0x8
	.byte	0x4
	.4byte	.LCFI43-.LCFI42
	.byte	0xb
	.byte	0x4
	.4byte	.LCFI44-.LCFI43
	.byte	0xa
	.byte	0xe
	.uleb128 0x8
	.byte	0x4
	.4byte	.LCFI45-.LCFI44
	.byte	0xce
	.byte	0xc4
	.byte	0xe
	.uleb128 0
	.byte	0x4
	.4byte	.LCFI46-.LCFI45
	.byte	0xb
	.align	2
.LEFDE26:
.LSFDE28:
	.4byte	.LEFDE28-.LASFDE28
.LASFDE28:
	.4byte	.Lframe0
	.4byte	.LFB11
	.4byte	.LFE11-.LFB11
	.byte	0x4
	.4byte	.LCFI47-.LFB11
	.byte	0xe
	.uleb128 0x18
	.byte	0x84
	.uleb128 0x4
	.byte	0x85
	.uleb128 0x3
	.byte	0x86
	.uleb128 0x2
	.byte	0x8e
	.uleb128 0x1
	.byte	0x4
	.4byte	.LCFI48-.LCFI47
	.byte	0xa
	.byte	0xe
	.uleb128 0x10
	.byte	0x4
	.4byte	.LCFI49-.LCFI48
	.byte	0xb
	.align	2
.LEFDE28:
.LSFDE30:
	.4byte	.LEFDE30-.LASFDE30
.LASFDE30:
	.4byte	.Lframe0
	.4byte	.LFB16
	.4byte	.LFE16-.LFB16
	.byte	0x4
	.4byte	.LCFI50-.LFB16
	.byte	0xe
	.uleb128 0x1c
	.byte	0x84
	.uleb128 0x7
	.byte	0x85
	.uleb128 0x6
	.byte	0x86
	.uleb128 0x5
	.byte	0x87
	.uleb128 0x4
	.byte	0x88
	.uleb128 0x3
	.byte	0x89
	.uleb128 0x2
	.byte	0x8e
	.uleb128 0x1
	.byte	0x4
	.4byte	.LCFI51-.LCFI50
	.byte	0xe
	.uleb128 0x40
	.byte	0x4
	.4byte	.LCFI52-.LCFI51
	.byte	0xa
	.byte	0xe
	.uleb128 0x1c
	.byte	0x4
	.4byte	.LCFI53-.LCFI52
	.byte	0xb
	.byte	0x4
	.4byte	.LCFI54-.LCFI53
	.byte	0xa
	.byte	0xe
	.uleb128 0x1c
	.byte	0x4
	.4byte	.LCFI55-.LCFI54
	.byte	0xce
	.byte	0xc9
	.byte	0xc8
	.byte	0xc7
	.byte	0xc6
	.byte	0xc5
	.byte	0xc4
	.byte	0xe
	.uleb128 0
	.byte	0x4
	.4byte	.LCFI56-.LCFI55
	.byte	0xb
	.byte	0x4
	.4byte	.LCFI57-.LCFI56
	.byte	0xa
	.byte	0xe
	.uleb128 0x1c
	.byte	0x4
	.4byte	.LCFI58-.LCFI57
	.byte	0xce
	.byte	0xc9
	.byte	0xc8
	.byte	0xc7
	.byte	0xc6
	.byte	0xc5
	.byte	0xc4
	.byte	0xe
	.uleb128 0
	.byte	0x4
	.4byte	.LCFI59-.LCFI58
	.byte	0xb
	.align	2
.LEFDE30:
.LSFDE32:
	.4byte	.LEFDE32-.LASFDE32
.LASFDE32:
	.4byte	.Lframe0
	.4byte	.LFB12
	.4byte	.LFE12-.LFB12
	.align	2
.LEFDE32:
.LSFDE34:
	.4byte	.LEFDE34-.LASFDE34
.LASFDE34:
	.4byte	.Lframe0
	.4byte	.LFB23
	.4byte	.LFE23-.LFB23
	.byte	0x4
	.4byte	.LCFI60-.LFB23
	.byte	0xe
	.uleb128 0x24
	.byte	0x84
	.uleb128 0x9
	.byte	0x85
	.uleb128 0x8
	.byte	0x86
	.uleb128 0x7
	.byte	0x87
	.uleb128 0x6
	.byte	0x88
	.uleb128 0x5
	.byte	0x89
	.uleb128 0x4
	.byte	0x8a
	.uleb128 0x3
	.byte	0x8b
	.uleb128 0x2
	.byte	0x8e
	.uleb128 0x1
	.byte	0x4
	.4byte	.LCFI61-.LCFI60
	.byte	0xe
	.uleb128 0x68
	.byte	0x4
	.4byte	.LCFI62-.LCFI61
	.byte	0xa
	.byte	0xe
	.uleb128 0x24
	.byte	0x4
	.4byte	.LCFI63-.LCFI62
	.byte	0xb
	.align	2
.LEFDE34:
.LSFDE36:
	.4byte	.LEFDE36-.LASFDE36
.LASFDE36:
	.4byte	.Lframe0
	.4byte	.LFB24
	.4byte	.LFE24-.LFB24
	.byte	0x4
	.4byte	.LCFI64-.LFB24
	.byte	0xe
	.uleb128 0x18
	.byte	0x84
	.uleb128 0x3
	.byte	0x85
	.uleb128 0x2
	.byte	0x8e
	.uleb128 0x1
	.byte	0x4
	.4byte	.LCFI65-.LCFI64
	.byte	0xe
	.uleb128 0xc
	.byte	0x4
	.4byte	.LCFI66-.LCFI65
	.byte	0xce
	.byte	0xc5
	.byte	0xc4
	.byte	0xe
	.uleb128 0
	.align	2
.LEFDE36:
.LSFDE38:
	.4byte	.LEFDE38-.LASFDE38
.LASFDE38:
	.4byte	.Lframe0
	.4byte	.LFB36
	.4byte	.LFE36-.LFB36
	.byte	0x4
	.4byte	.LCFI67-.LFB36
	.byte	0xe
	.uleb128 0x10
	.byte	0x84
	.uleb128 0x4
	.byte	0x85
	.uleb128 0x3
	.byte	0x86
	.uleb128 0x2
	.byte	0x8e
	.uleb128 0x1
	.byte	0x4
	.4byte	.LCFI68-.LCFI67
	.byte	0xe
	.uleb128 0x28
	.byte	0x4
	.4byte	.LCFI69-.LCFI68
	.byte	0xa
	.byte	0xe
	.uleb128 0x10
	.byte	0x4
	.4byte	.LCFI70-.LCFI69
	.byte	0xb
	.align	2
.LEFDE38:
.LSFDE40:
	.4byte	.LEFDE40-.LASFDE40
.LASFDE40:
	.4byte	.Lframe0
	.4byte	.LFB25
	.4byte	.LFE25-.LFB25
	.byte	0x4
	.4byte	.LCFI71-.LFB25
	.byte	0xe
	.uleb128 0xc
	.byte	0x84
	.uleb128 0x3
	.byte	0x85
	.uleb128 0x2
	.byte	0x8e
	.uleb128 0x1
	.byte	0x4
	.4byte	.LCFI72-.LCFI71
	.byte	0xe
	.uleb128 0x28
	.byte	0x4
	.4byte	.LCFI73-.LCFI72
	.byte	0xe
	.uleb128 0xc
	.align	2
.LEFDE40:
.LSFDE42:
	.4byte	.LEFDE42-.LASFDE42
.LASFDE42:
	.4byte	.Lframe0
	.4byte	.LFB26
	.4byte	.LFE26-.LFB26
	.byte	0x4
	.4byte	.LCFI74-.LFB26
	.byte	0xe
	.uleb128 0x10
	.byte	0x84
	.uleb128 0x2
	.byte	0x8e
	.uleb128 0x1
	.byte	0x4
	.4byte	.LCFI75-.LCFI74
	.byte	0xe
	.uleb128 0x8
	.align	2
.LEFDE42:
.LSFDE44:
	.4byte	.LEFDE44-.LASFDE44
.LASFDE44:
	.4byte	.Lframe0
	.4byte	.LFB31
	.4byte	.LFE31-.LFB31
	.byte	0x4
	.4byte	.LCFI76-.LFB31
	.byte	0xe
	.uleb128 0x18
	.byte	0x84
	.uleb128 0x3
	.byte	0x85
	.uleb128 0x2
	.byte	0x8e
	.uleb128 0x1
	.byte	0x4
	.4byte	.LCFI77-.LCFI76
	.byte	0xa
	.byte	0xe
	.uleb128 0xc
	.byte	0x4
	.4byte	.LCFI78-.LCFI77
	.byte	0xb
	.align	2
.LEFDE44:
.LSFDE46:
	.4byte	.LEFDE46-.LASFDE46
.LASFDE46:
	.4byte	.Lframe0
	.4byte	.LFB27
	.4byte	.LFE27-.LFB27
	.byte	0x4
	.4byte	.LCFI79-.LFB27
	.byte	0xe
	.uleb128 0x10
	.byte	0x84
	.uleb128 0x2
	.byte	0x8e
	.uleb128 0x1
	.byte	0x4
	.4byte	.LCFI80-.LCFI79
	.byte	0xe
	.uleb128 0x8
	.align	2
.LEFDE46:
.LSFDE48:
	.4byte	.LEFDE48-.LASFDE48
.LASFDE48:
	.4byte	.Lframe0
	.4byte	.LFB32
	.4byte	.LFE32-.LFB32
	.align	2
.LEFDE48:
.LSFDE50:
	.4byte	.LEFDE50-.LASFDE50
.LASFDE50:
	.4byte	.Lframe0
	.4byte	.LFB28
	.4byte	.LFE28-.LFB28
	.byte	0x4
	.4byte	.LCFI81-.LFB28
	.byte	0xe
	.uleb128 0x10
	.byte	0x84
	.uleb128 0x2
	.byte	0x8e
	.uleb128 0x1
	.byte	0x4
	.4byte	.LCFI82-.LCFI81
	.byte	0xe
	.uleb128 0x8
	.align	2
.LEFDE50:
.LSFDE52:
	.4byte	.LEFDE52-.LASFDE52
.LASFDE52:
	.4byte	.Lframe0
	.4byte	.LFB33
	.4byte	.LFE33-.LFB33
	.align	2
.LEFDE52:
	.text
.Letext0:
	.file 2 "/usr/share/segger_embedded_studio_for_arm_5.42a/include/stdint.h"
	.file 3 "/usr/share/segger_embedded_studio_for_arm_5.42a/include/stddef.h"
	.file 4 "/home/orlo/beep-base-firmware/Source_V1.5.12/Code/nRF/nRF5_SDK_15.3/external/nano-pb/pb.h"
	.file 5 "/home/orlo/beep-base-firmware/Source_V1.5.12/Code/nRF/nRF5_SDK_15.3/external/nano-pb/pb_decode.h"
	.file 6 "/home/orlo/beep-base-firmware/Source_V1.5.12/Code/nRF/nRF5_SDK_15.3/external/nano-pb/pb_common.h"
	.file 7 "/usr/share/segger_embedded_studio_for_arm_5.42a/include/string.h"