	.cpu cortex-m4
	.eabi_attribute 27, 1
	.eabi_attribute 28, 1
	.eabi_attribute 20, 1
	.eabi_attribute 21, 1
	.eabi_attribute 23, 3
	.eabi_attribute 24, 1
	.eabi_attribute 25, 1
	.eabi_attribute 26, 1
	.eabi_attribute 30, 6
	.eabi_attribute 34, 1
	.eabi_attribute 18, 4
	.file	"aes.c"
	.text
.Ltext0:
	.section	.text.mbedtls_zeroize,"ax",%progbits
	.align	1
	.syntax unified
	.thumb
	.thumb_func
	.fpu fpv4-sp-d16
	.type	mbedtls_zeroize, %function
mbedtls_zeroize:
.LFB0:
	.file 1 "/home/orlo/Source_V1.5.13/Code/nRF/nRF5_SDK_15.3/external/mbedtls/library/aes.c"
	.loc 1 58 50
	@ args = 0, pretend = 0, frame = 16
	@ frame_needed = 0, uses_anonymous_args = 0
	@ link register save eliminated.
	sub	sp, sp, #16
.LCFI0:
	str	r0, [sp, #4]
	str	r1, [sp]
	.loc 1 59 29
	ldr	r3, [sp, #4]
	str	r3, [sp, #12]
	.loc 1 59 57
	b	.L2
.L3:
	.loc 1 59 67 discriminator 3
	ldr	r3, [sp, #12]
	adds	r2, r3, #1
	str	r2, [sp, #12]
	.loc 1 59 70 discriminator 3
	movs	r2, #0
	strb	r2, [r3]
.L2:
	.loc 1 59 60 discriminator 1
	ldr	r3, [sp]
	subs	r2, r3, #1
	str	r2, [sp]
	.loc 1 59 57 discriminator 1
	cmp	r3, #0
	bne	.L3
	.loc 1 60 1
	nop
	nop
	add	sp, sp, #16
.LCFI1:
	@ sp needed
	bx	lr
.LFE0:
	.size	mbedtls_zeroize, .-mbedtls_zeroize
	.section	.rodata.FSb,"a"
	.align	2
	.type	FSb, %object
	.size	FSb, 256
FSb:
	.ascii	"c|w{\362ko\3050\001g+\376\327\253v\312\202\311}\372"
	.ascii	"YG\360\255\324\242\257\234\244r\300\267\375\223&6?\367"
	.ascii	"\3144\245\345\361q\3301\025\004\307#\303\030\226\005"
	.ascii	"\232\007\022\200\342\353'\262u\011\203,\032\033nZ\240"
	.ascii	"R;\326\263)\343/\204S\321\000\355 \374\261[j\313\276"
	.ascii	"9JLX\317\320\357\252\373CM3\205E\371\002\177P<\237\250"
	.ascii	"Q\243@\217\222\2358\365\274\266\332!\020\377\363\322"
	.ascii	"\315\014\023\354_\227D\027\304\247~=d]\031s`\201O\334"
	.ascii	"\"*\220\210F\356\270\024\336^\013\333\3402:\012I\006"
	.ascii	"$\\\302\323\254b\221\225\344y\347\3107m\215\325N\251"
	.ascii	"lV\364\352ez\256\010\272x%.\034\246\264\306\350\335"
	.ascii	"t\037K\275\213\212p>\265fH\003\366\016a5W\271\206\301"
	.ascii	"\035\236\341\370\230\021i\331\216\224\233\036\207\351"
	.ascii	"\316U(\337\214\241\211\015\277\346BhA\231-\017\260T"
	.ascii	"\273\026"
	.section	.rodata.FT0,"a"
	.align	2
	.type	FT0, %object
	.size	FT0, 1024
FT0:
	.word	-1520213050
	.word	-2072216328
	.word	-1720223762
	.word	-1921287178
	.word	234025727
	.word	-1117033514
	.word	-1318096930
	.word	1422247313
	.word	1345335392
	.word	50397442
	.word	-1452841010
	.word	2099981142
	.word	436141799
	.word	1658312629
	.word	-424957107
	.word	-1703512340
	.word	1170918031
	.word	-1652391393
	.word	1086966153
	.word	-2021818886
	.word	368769775
	.word	-346465870
	.word	-918075506
	.word	200339707
	.word	-324162239
	.word	1742001331
	.word	-39673249
	.word	-357585083
	.word	-1080255453
	.word	-140204973
	.word	-1770884380
	.word	1539358875
	.word	-1028147339
	.word	486407649
	.word	-1366060227
	.word	1780885068
	.word	1513502316
	.word	1094664062
	.word	49805301
	.word	1338821763
	.word	1546925160
	.word	-190470831
	.word	887481809
	.word	150073849
	.word	-1821281822
	.word	1943591083
	.word	1395732834
	.word	1058346282
	.word	201589768
	.word	1388824469
	.word	1696801606
	.word	1589887901
	.word	672667696
	.word	-1583966665
	.word	251987210
	.word	-1248159185
	.word	151455502
	.word	907153956
	.word	-1686077413
	.word	1038279391
	.word	652995533
	.word	1764173646
	.word	-843926913
	.word	-1619692054
	.word	453576978
	.word	-1635548387
	.word	1949051992
	.word	773462580
	.word	756751158
	.word	-1301385508
	.word	-296068428
	.word	-73359269
	.word	-162377052
	.word	1295727478
	.word	1641469623
	.word	-827083907
	.word	2066295122
	.word	1055122397
	.word	1898917726
	.word	-1752923117
	.word	-179088474
	.word	1758581177
	.word	0
	.word	753790401
	.word	1612718144
	.word	536673507
	.word	-927878791
	.word	-312779850
	.word	-1100322092
	.word	1187761037
	.word	-641810841
	.word	1262041458
	.word	-565556588
	.word	-733197160
	.word	-396863312
	.word	1255133061
	.word	1808847035
	.word	720367557
	.word	-441800113
	.word	385612781
	.word	-985447546
	.word	-682799718
	.word	1429418854
	.word	-1803188975
	.word	-817543798
	.word	284817897
	.word	100794884
	.word	-2122350594
	.word	-263171936
	.word	1144798328
	.word	-1163944155
	.word	-475486133
	.word	-212774494
	.word	-22830243
	.word	-1069531008
	.word	-1970303227
	.word	-1382903233
	.word	-1130521311
	.word	1211644016
	.word	83228145
	.word	-541279133
	.word	-1044990345
	.word	1977277103
	.word	1663115586
	.word	806359072
	.word	452984805
	.word	250868733
	.word	1842533055
	.word	1288555905
	.word	336333848
	.word	890442534
	.word	804056259
	.word	-513843266
	.word	-1567123659
	.word	-867941240
	.word	957814574
	.word	1472513171
	.word	-223893675
	.word	-2105639172
	.word	1195195770
	.word	-1402706744
	.word	-413311558
	.word	723065138
	.word	-1787595802
	.word	-1604296512
	.word	-1736343271
	.word	-783331426
	.word	2145180835
	.word	1713513028
	.word	2116692564
	.word	-1416589253
	.word	-2088204277
	.word	-901364084
	.word	703524551
	.word	-742868885
	.word	1007948840
	.word	2044649127
	.word	-497131844
	.word	487262998
	.word	1994120109
	.word	1004593371
	.word	1446130276
	.word	1312438900
	.word	503974420
	.word	-615954030
	.word	168166924
	.word	1814307912
	.word	-463709000
	.word	1573044895
	.word	1859376061
	.word	-273896381
	.word	-1503501628
	.word	-1466855111
	.word	-1533700815
	.word	937747667
	.word	-1954973198
	.word	854058965
	.word	1137232011
	.word	1496790894
	.word	-1217565222
	.word	-1936880383
	.word	1691735473
	.word	-766620004
	.word	-525751991
	.word	-1267962664
	.word	-95005012
	.word	133494003
	.word	636152527
	.word	-1352309302
	.word	-1904575756
	.word	-374428089
	.word	403179536
	.word	-709182865
	.word	-2005370640
	.word	1864705354
	.word	1915629148
	.word	605822008
	.word	-240736681
	.word	-944458637
	.word	1371981463
	.word	602466507
	.word	2094914977
	.word	-1670089496
	.word	555687742
	.word	-582268010
	.word	-591544991
	.word	-2037675251
	.word	-2054518257
	.word	-1871679264
	.word	1111375484
	.word	-994724495
	.word	-1436129588
	.word	-666351472
	.word	84083462
	.word	32962295
	.word	302911004
	.word	-1553899070
	.word	1597322602
	.word	-111716434
	.word	-793134743
	.word	-1853454825
	.word	1489093017
	.word	656219450
	.word	-1180787161
	.word	954327513
	.word	335083755
	.word	-1281845205
	.word	856756514
	.word	-1150719534
	.word	1893325225
	.word	-1987146233
	.word	-1483434957
	.word	-1231316179
	.word	572399164
	.word	-1836611819
	.word	552200649
	.word	1238290055
	.word	-11184726
	.word	2015897680
	.word	2061492133
	.word	-1886614525
	.word	-123625127
	.word	-2138470135
	.word	386731290
	.word	-624967835
	.word	837215959
	.word	-968736124
	.word	-1201116976
	.word	-1019133566
	.word	-1332111063
	.word	1999449434
	.word	286199582
	.word	-877612933
	.word	-61582168
	.word	-692339859
	.word	974525996
	.section	.rodata.FT1,"a"
	.align	2
	.type	FT1, %object
	.size	FT1, 1024
FT1:
	.word	1667483301
	.word	2088564868
	.word	2004348569
	.word	2071721613
	.word	-218956019
	.word	1802229437
	.word	1869602481
	.word	-976907948
	.word	808476752
	.word	16843267
	.word	1734856361
	.word	724260477
	.word	-16849127
	.word	-673729182
	.word	-1414836762
	.word	1987505306
	.word	-892694715
	.word	-2105401443
	.word	-909539008
	.word	2105408135
	.word	-84218091
	.word	1499050731
	.word	1195871945
	.word	-252642549
	.word	-1381154324
	.word	-724257945
	.word	-1566416899
	.word	-1347467798
	.word	-1667488833
	.word	-1532734473
	.word	1920132246
	.word	-1061119141
	.word	-1212713534
	.word	-33693412
	.word	-1819066962
	.word	640044138
	.word	909536346
	.word	1061125697
	.word	-134744830
	.word	-859012273
	.word	875849820
	.word	-1515892236
	.word	-437923532
	.word	-235800312
	.word	1903288979
	.word	-656888973
	.word	825320019
	.word	353708607
	.word	67373068
	.word	-943221422
	.word	589514341
	.word	-1010590370
	.word	404238376
	.word	-1768540255
	.word	84216335
	.word	-1701171275
	.word	117902857
	.word	303178806
	.word	-2139087973
	.word	-488448195
	.word	-336868058
	.word	656887401
	.word	-1296924723
	.word	1970662047
	.word	151589403
	.word	-2088559202
	.word	741103732
	.word	437924910
	.word	454768173
	.word	1852759218
	.word	1515893998
	.word	-1600103429
	.word	1381147894
	.word	993752653
	.word	-690571423
	.word	-1280082482
	.word	690573947
	.word	-471605954
	.word	791633521
	.word	-2071719017
	.word	1397991157
	.word	-774784664
	.word	0
	.word	-303185620
	.word	538984544
	.word	-50535649
	.word	-1313769016
	.word	1532737261
	.word	1785386174
	.word	-875852474
	.word	-1094817831
	.word	960066123
	.word	1246401758
	.word	1280088276
	.word	1482207464
	.word	-808483510
	.word	-791626901
	.word	-269499094
	.word	-1431679003
	.word	-67375850
	.word	1128498885
	.word	1296931543
	.word	859006549
	.word	-2054876780
	.word	1162185423
	.word	-101062384
	.word	33686534
	.word	2139094657
	.word	1347461360
	.word	1010595908
	.word	-1616960070
	.word	-1465365533
	.word	1364304627
	.word	-1549574658
	.word	1077969088
	.word	-1886452342
	.word	-1835909203
	.word	-1650646596
	.word	943222856
	.word	-168431356
	.word	-1128504353
	.word	-1229555775
	.word	-623202443
	.word	555827811
	.word	269492272
	.word	-6886
	.word	-202113778
	.word	-757940371
	.word	-842170036
	.word	202119188
	.word	320022069
	.word	-320027857
	.word	1600110305
	.word	-1751698014
	.word	1145342156
	.word	387395129
	.word	-993750185
	.word	-1482205710
	.word	2122251394
	.word	1027439175
	.word	1684326572
	.word	1566423783
	.word	421081643
	.word	1936975509
	.word	1616953504
	.word	-2122245736
	.word	1330618065
	.word	-589520001
	.word	572671078
	.word	707417214
	.word	-1869595733
	.word	-2004350077
	.word	1179028682
	.word	-286341335
	.word	-1195873325
	.word	336865340
	.word	-555833479
	.word	1583267042
	.word	185275933
	.word	-606360202
	.word	-522134725
	.word	842163286
	.word	976909390
	.word	168432670
	.word	1229558491
	.word	101059594
	.word	606357612
	.word	1549580516
	.word	-1027432611
	.word	-741098130
	.word	-1397996561
	.word	1650640038
	.word	-1852753496
	.word	-1785384540
	.word	-454765769
	.word	2038035083
	.word	-404237006
	.word	-926381245
	.word	926379609
	.word	1835915959
	.word	-1920138868
	.word	-707415708
	.word	1313774802
	.word	-1448523296
	.word	1819072692
	.word	1448520954
	.word	-185273593
	.word	-353710299
	.word	1701169839
	.word	2054878350
	.word	-1364310039
	.word	134746136
	.word	-1162186795
	.word	2021191816
	.word	623200879
	.word	774790258
	.word	471611428
	.word	-1499047951
	.word	-1263242297
	.word	-960063663
	.word	-387396829
	.word	-572677764
	.word	1953818780
	.word	522141217
	.word	1263245021
	.word	-1111662116
	.word	-1953821306
	.word	-1970663547
	.word	1886445712
	.word	1044282434
	.word	-1246400060
	.word	1718013098
	.word	1212715224
	.word	50529797
	.word	-151587071
	.word	235805714
	.word	1633796771
	.word	892693087
	.word	1465364217
	.word	-1179031088
	.word	-2038032495
	.word	-1044276904
	.word	488454695
	.word	-1633802311
	.word	-505292488
	.word	-117904621
	.word	-1734857805
	.word	286335539
	.word	1768542907
	.word	-640046736
	.word	-1903294583
	.word	-1802226777
	.word	-1684329034
	.word	505297954
	.word	-2021190254
	.word	-370554592
	.word	-825325751
	.word	1431677695
	.word	673730680
	.word	-538991238
	.word	-1936981105
	.word	-1583261192
	.word	-1987507840
	.word	218962455
	.word	-1077975590
	.word	-421079247
	.word	1111655622
	.word	1751699640
	.word	1094812355
	.word	-1718015568
	.word	757946999
	.word	252648977
	.word	-1330611253
	.word	1414834428
	.word	-1145344554
	.word	370551866
	.section	.rodata.FT2,"a"
	.align	2
	.type	FT2, %object
	.size	FT2, 1024
FT2:
	.word	1673962851
	.word	2096661628
	.word	2012125559
	.word	2079755643
	.word	-218165774
	.word	1809235307
	.word	1876865391
	.word	-980331323
	.word	811618352
	.word	16909057
	.word	1741597031
	.word	727088427
	.word	-18408962
	.word	-675978537
	.word	-1420958037
	.word	1995217526
	.word	-896580150
	.word	-2111857278
	.word	-913751863
	.word	2113570685
	.word	-84994566
	.word	1504897881
	.word	1200539975
	.word	-251982864
	.word	-1388188499
	.word	-726439980
	.word	-1570767454
	.word	-1354372433
	.word	-1675378788
	.word	-1538000988
	.word	1927583346
	.word	-1063560256
	.word	-1217019209
	.word	-35578627
	.word	-1824674157
	.word	642542118
	.word	913070646
	.word	1065238847
	.word	-134937865
	.word	-863809588
	.word	879254580
	.word	-1521355611
	.word	-439274267
	.word	-235337487
	.word	1910674289
	.word	-659852328
	.word	828527409
	.word	355090197
	.word	67636228
	.word	-946515257
	.word	591815971
	.word	-1013096765
	.word	405809176
	.word	-1774739050
	.word	84545285
	.word	-1708149350
	.word	118360327
	.word	304363026
	.word	-2145674368
	.word	-488686110
	.word	-338876693
	.word	659450151
	.word	-1300247118
	.word	1978310517
	.word	152181513
	.word	-2095210877
	.word	743994412
	.word	439627290
	.word	456535323
	.word	1859957358
	.word	1521806938
	.word	-1604584544
	.word	1386542674
	.word	997608763
	.word	-692624938
	.word	-1283600717
	.word	693271337
	.word	-472039709
	.word	794718511
	.word	-2079090812
	.word	1403450707
	.word	-776378159
	.word	0
	.word	-306107155
	.word	541089824
	.word	-52224004
	.word	-1317418831
	.word	1538714971
	.word	1792327274
	.word	-879933749
	.word	-1100490306
	.word	963791673
	.word	1251270218
	.word	1285084236
	.word	1487988824
	.word	-813348145
	.word	-793023536
	.word	-272291089
	.word	-1437604438
	.word	-68348165
	.word	1132905795
	.word	1301993293
	.word	862344499
	.word	-2062445435
	.word	1166724933
	.word	-102166279
	.word	33818114
	.word	2147385727
	.word	1352724560
	.word	1014514748
	.word	-1624917345
	.word	-1471421528
	.word	1369633617
	.word	-1554121053
	.word	1082179648
	.word	-1895462257
	.word	-1841320558
	.word	-1658733411
	.word	946882616
	.word	-168753931
	.word	-1134305348
	.word	-1233665610
	.word	-626035238
	.word	557998881
	.word	270544912
	.word	-1762561
	.word	-201519373
	.word	-759206446
	.word	-847164211
	.word	202904588
	.word	321271059
	.word	-322752532
	.word	1606345055
	.word	-1758092649
	.word	1149815876
	.word	388905239
	.word	-996976700
	.word	-1487539545
	.word	2130477694
	.word	1031423805
	.word	1690872932
	.word	1572530013
	.word	422718233
	.word	1944491379
	.word	1623236704
	.word	-2129028991
	.word	1335808335
	.word	-593264676
	.word	574907938
	.word	710180394
	.word	-1875137648
	.word	-2012511352
	.word	1183631942
	.word	-288937490
	.word	-1200893000
	.word	338181140
	.word	-559449634
	.word	1589437022
	.word	185998603
	.word	-609388837
	.word	-522503200
	.word	845436466
	.word	980700730
	.word	169090570
	.word	1234361161
	.word	101452294
	.word	608726052
	.word	1555620956
	.word	-1029743166
	.word	-742560045
	.word	-1404833876
	.word	1657054818
	.word	-1858492271
	.word	-1791908715
	.word	-455919644
	.word	2045938553
	.word	-405458201
	.word	-930397240
	.word	929978679
	.word	1843050349
	.word	-1929278323
	.word	-709794603
	.word	1318900302
	.word	-1454776151
	.word	1826141292
	.word	1454176854
	.word	-185399308
	.word	-355523094
	.word	1707781989
	.word	2062847610
	.word	-1371018834
	.word	135272456
	.word	-1167075910
	.word	2029029496
	.word	625635109
	.word	777810478
	.word	473441308
	.word	-1504185946
	.word	-1267480652
	.word	-963161658
	.word	-389340184
	.word	-576619299
	.word	1961401460
	.word	524165407
	.word	1268178251
	.word	-1117659971
	.word	-1962047861
	.word	-1978694262
	.word	1893765232
	.word	1048330814
	.word	-1250835275
	.word	1724688998
	.word	1217452104
	.word	50726147
	.word	-151584266
	.word	236720654
	.word	1640145761
	.word	896163637
	.word	1471084887
	.word	-1184247623
	.word	-2045275770
	.word	-1046914879
	.word	490350365
	.word	-1641563746
	.word	-505857823
	.word	-118811656
	.word	-1741966440
	.word	287453969
	.word	1775418217
	.word	-643206951
	.word	-1912108658
	.word	-1808554092
	.word	-1691502949
	.word	507257374
	.word	-2028629369
	.word	-372694807
	.word	-829994546
	.word	1437269845
	.word	676362280
	.word	-542803233
	.word	-1945923700
	.word	-1587939167
	.word	-1995865975
	.word	219813645
	.word	-1083843905
	.word	-422104602
	.word	1115997762
	.word	1758509160
	.word	1099088705
	.word	-1725321063
	.word	760903469
	.word	253628687
	.word	-1334064208
	.word	1420360788
	.word	-1150429509
	.word	371997206
	.section	.rodata.FT3,"a"
	.align	2
	.type	FT3, %object
	.size	FT3, 1024
FT3:
	.word	-962239645
	.word	-125535108
	.word	-291932297
	.word	-158499973
	.word	-15863054
	.word	-692229269
	.word	-558796945
	.word	-1856715323
	.word	1615867952
	.word	33751297
	.word	-827758745
	.word	1451043627
	.word	-417726722
	.word	-1251813417
	.word	1306962859
	.word	-325421450
	.word	-1891251510
	.word	530416258
	.word	-1992242743
	.word	-91783811
	.word	-283772166
	.word	-1293199015
	.word	-1899411641
	.word	-83103504
	.word	1106029997
	.word	-1285040940
	.word	1610457762
	.word	1173008303
	.word	599760028
	.word	1408738468
	.word	-459902350
	.word	-1688485696
	.word	1975695287
	.word	-518193667
	.word	1034851219
	.word	1282024998
	.word	1817851446
	.word	2118205247
	.word	-184354825
	.word	-2091922228
	.word	1750873140
	.word	1374987685
	.word	-785062427
	.word	-116854287
	.word	-493653647
	.word	-1418471208
	.word	1649619249
	.word	708777237
	.word	135005188
	.word	-1789737017
	.word	1181033251
	.word	-1654733885
	.word	807933976
	.word	933336726
	.word	168756485
	.word	800430746
	.word	235472647
	.word	607523346
	.word	463175808
	.word	-549592350
	.word	-853087253
	.word	1315514151
	.word	2144187058
	.word	-358648459
	.word	303761673
	.word	496927619
	.word	1484008492
	.word	875436570
	.word	908925723
	.word	-592286098
	.word	-1259447718
	.word	1543217312
	.word	-1527360942
	.word	1984772923
	.word	-1218324778
	.word	2110698419
	.word	1383803177
	.word	-583080989
	.word	1584475951
	.word	328696964
	.word	-1493871789
	.word	-1184312879
	.word	0
	.word	-1054020115
	.word	1080041504
	.word	-484442884
	.word	2043195825
	.word	-1225958565
	.word	-725718422
	.word	-1924740149
	.word	1742323390
	.word	1917532473
	.word	-1797371318
	.word	-1730917300
	.word	-1326950312
	.word	-2058694705
	.word	-1150562096
	.word	-987041809
	.word	1340451498
	.word	-317260805
	.word	-2033892541
	.word	-1697166003
	.word	1716859699
	.word	294946181
	.word	-1966127803
	.word	-384763399
	.word	67502594
	.word	-25067649
	.word	-1594863536
	.word	2017737788
	.word	632987551
	.word	1273211048
	.word	-1561112239
	.word	1576969123
	.word	-2134884288
	.word	92966799
	.word	1068339858
	.word	566009245
	.word	1883781176
	.word	-251333131
	.word	1675607228
	.word	2009183926
	.word	-1351230758
	.word	1113792801
	.word	540020752
	.word	-451215361
	.word	-49351693
	.word	-1083321646
	.word	-2125673011
	.word	403966988
	.word	641012499
	.word	-1020269332
	.word	-1092526241
	.word	899848087
	.word	-1999879100
	.word	775493399
	.word	-1822964540
	.word	1441965991
	.word	-58556802
	.word	2051489085
	.word	-928226204
	.word	-1159242403
	.word	841685273
	.word	-426413197
	.word	-1063231392
	.word	429425025
	.word	-1630449841
	.word	-1551901476
	.word	1147544098
	.word	1417554474
	.word	1001099408
	.word	193169544
	.word	-1932900794
	.word	-953553170
	.word	1809037496
	.word	675025940
	.word	-1485185314
	.word	-1126015394
	.word	371002123
	.word	-1384719397
	.word	-616832800
	.word	1683370546
	.word	1951283770
	.word	337512970
	.word	-1831122615
	.word	201983494
	.word	1215046692
	.word	-1192993700
	.word	-1621245246
	.word	-1116810285
	.word	1139780780
	.word	-995728798
	.word	967348625
	.word	832869781
	.word	-751311644
	.word	-225740423
	.word	-718084121
	.word	-1958491960
	.word	1851340599
	.word	-625513107
	.word	25988493
	.word	-1318791723
	.word	-1663938994
	.word	1239460265
	.word	-659264404
	.word	-1392880042
	.word	-217582348
	.word	-819598614
	.word	-894474907
	.word	-191989126
	.word	1206496942
	.word	270010376
	.word	1876277946
	.word	-259491720
	.word	1248797989
	.word	1550986798
	.word	941890588
	.word	1475454630
	.word	1942467764
	.word	-1756248378
	.word	-886839064
	.word	-1585652259
	.word	-392399756
	.word	1042358047
	.word	-1763882165
	.word	1641856445
	.word	226921355
	.word	260409994
	.word	-527404944
	.word	2084716094
	.word	1908716981
	.word	-861247898
	.word	-1864873912
	.word	100991747
	.word	-150866186
	.word	470945294
	.word	-1029480095
	.word	1784624437
	.word	-1359390889
	.word	1775286713
	.word	395413126
	.word	-1722236479
	.word	975641885
	.word	666476190
	.word	-650583583
	.word	-351012616
	.word	733190296
	.word	573772049
	.word	-759469719
	.word	-1452221991
	.word	126455438
	.word	866620564
	.word	766942107
	.word	1008868894
	.word	361924487
	.word	-920589847
	.word	-2025206066
	.word	-1426107051
	.word	1350051880
	.word	-1518673953
	.word	59739276
	.word	1509466529
	.word	159418761
	.word	437718285
	.word	1708834751
	.word	-684595482
	.word	-2067381694
	.word	-793221016
	.word	-2101132991
	.word	699439513
	.word	1517759789
	.word	504434447
	.word	2076946608
	.word	-1459858348
	.word	1842789307
	.word	742004246
	.section	.rodata.RSb,"a"
	.align	2
	.type	RSb, %object
	.size	RSb, 256
RSb:
	.ascii	"R\011j\32506\2458\277@\243\236\201\363\327\373|\343"
	.ascii	"9\202\233/\377\2074\216CD\304\336\351\313T{\2242\246"
	.ascii	"\302#=\356L\225\013B\372\303N\010.\241f(\331$\262v["
	.ascii	"\242Im\213\321%r\370\366d\206h\230\026\324\244\\\314"
	.ascii	"]e\266\222lpHP\375\355\271\332^\025FW\247\215\235\204"
	.ascii	"\220\330\253\000\214\274\323\012\367\344X\005\270\263"
	.ascii	"E\006\320,\036\217\312?\017\002\301\257\275\003\001"
	.ascii	"\023\212k:\221\021AOg\334\352\227\362\317\316\360\264"
	.ascii	"\346s\226\254t\"\347\2555\205\342\3717\350\034u\337"
	.ascii	"nG\361\032q\035)\305\211o\267b\016\252\030\276\033\374"
	.ascii	"V>K\306\322y \232\333\300\376x\315Z\364\037\335\250"
	.ascii	"3\210\007\3071\261\022\020Y'\200\354_`Q\177\251\031"
	.ascii	"\265J\015-\345z\237\223\311\234\357\240\340;M\256*\365"
	.ascii	"\260\310\353\273<\203S\231a\027+\004~\272w\326&\341"
	.ascii	"i\024cU!\014}"
	.section	.rodata.RT0,"a"
	.align	2
	.type	RT0, %object
	.size	RT0, 1024
RT0:
	.word	1353184337
	.word	1399144830
	.word	-1012656358
	.word	-1772214470
	.word	-882136261
	.word	-247096033
	.word	-1420232020
	.word	-1828461749
	.word	1442459680
	.word	-160598355
	.word	-1854485368
	.word	625738485
	.word	-52959921
	.word	-674551099
	.word	-2143013594
	.word	-1885117771
	.word	1230680542
	.word	1729870373
	.word	-1743852987
	.word	-507445667
	.word	41234371
	.word	317738113
	.word	-1550367091
	.word	-956705941
	.word	-413167869
	.word	-1784901099
	.word	-344298049
	.word	-631680363
	.word	763608788
	.word	-752782248
	.word	694804553
	.word	1154009486
	.word	1787413109
	.word	2021232372
	.word	1799248025
	.word	-579749593
	.word	-1236278850
	.word	397248752
	.word	1722556617
	.word	-1271214467
	.word	407560035
	.word	-2110711067
	.word	1613975959
	.word	1165972322
	.word	-529046351
	.word	-2068943941
	.word	480281086
	.word	-1809118983
	.word	1483229296
	.word	436028815
	.word	-2022908268
	.word	-1208452270
	.word	601060267
	.word	-503166094
	.word	1468997603
	.word	715871590
	.word	120122290
	.word	63092015
	.word	-1703164538
	.word	-1526188077
	.word	-226023376
	.word	-1297760477
	.word	-1167457534
	.word	1552029421
	.word	723308426
	.word	-1833666137
	.word	-252573709
	.word	-1578997426
	.word	-839591323
	.word	-708967162
	.word	526529745
	.word	-1963022652
	.word	-1655493068
	.word	-1604979806
	.word	853641733
	.word	1978398372
	.word	971801355
	.word	-1427152832
	.word	111112542
	.word	1360031421
	.word	-108388034
	.word	1023860118
	.word	-1375387939
	.word	1186850381
	.word	-1249028975
	.word	90031217
	.word	1876166148
	.word	-15380384
	.word	620468249
	.word	-1746289194
	.word	-868007799
	.word	2006899047
	.word	-1119688528
	.word	-2004121337
	.word	945494503
	.word	-605108103
	.word	1191869601
	.word	-384875908
	.word	-920746760
	.word	0
	.word	-2088337399
	.word	1223502642
	.word	-1401941730
	.word	1316117100
	.word	-67170563
	.word	1446544655
	.word	517320253
	.word	658058550
	.word	1691946762
	.word	564550760
	.word	-783000677
	.word	976107044
	.word	-1318647284
	.word	266819475
	.word	-761860428
	.word	-1634624741
	.word	1338359936
	.word	-1574904735
	.word	1766553434
	.word	370807324
	.word	179999714
	.word	-450191168
	.word	1138762300
	.word	488053522
	.word	185403662
	.word	-1379431438
	.word	-1180125651
	.word	-928440812
	.word	-2061897385
	.word	1275557295
	.word	-1143105042
	.word	-44007517
	.word	-1624899081
	.word	-1124765092
	.word	-985962940
	.word	880737115
	.word	1982415755
	.word	-590994485
	.word	1761406390
	.word	1676797112
	.word	-891538985
	.word	277177154
	.word	1076008723
	.word	538035844
	.word	2099530373
	.word	-130171950
	.word	288553390
	.word	1839278535
	.word	1261411869
	.word	-214912292
	.word	-330136051
	.word	-790380169
	.word	1813426987
	.word	-1715900247
	.word	-95906799
	.word	577038663
	.word	-997393240
	.word	440397984
	.word	-668172970
	.word	-275762398
	.word	-951170681
	.word	-1043253031
	.word	-22885748
	.word	906744984
	.word	-813566554
	.word	685669029
	.word	646887386
	.word	-1530942145
	.word	-459458004
	.word	227702864
	.word	-1681105046
	.word	1648787028
	.word	-1038905866
	.word	-390539120
	.word	1593260334
	.word	-173030526
	.word	-1098883681
	.word	2090061929
	.word	-1456614033
	.word	-1290656305
	.word	999926984
	.word	-1484974064
	.word	1852021992
	.word	2075868123
	.word	158869197
	.word	-199730834
	.word	28809964
	.word	-1466282109
	.word	1701746150
	.word	2129067946
	.word	147831841
	.word	-420997649
	.word	-644094022
	.word	-835293366
	.word	-737566742
	.word	-696471511
	.word	-1347247055
	.word	824393514
	.word	815048134
	.word	-1067015627
	.word	935087732
	.word	-1496677636
	.word	-1328508704
	.word	366520115
	.word	1251476721
	.word	-136647615
	.word	240176511
	.word	804688151
	.word	-1915335306
	.word	1303441219
	.word	1414376140
	.word	-553347356
	.word	-474623586
	.word	461924940
	.word	-1205916479
	.word	2136040774
	.word	82468509
	.word	1563790337
	.word	1937016826
	.word	776014843
	.word	1511876531
	.word	1389550482
	.word	861278441
	.word	323475053
	.word	-1939744870
	.word	2047648055
	.word	-1911228327
	.word	-1992551445
	.word	-299390514
	.word	902390199
	.word	-303751967
	.word	1018251130
	.word	1507840668
	.word	1064563285
	.word	2043548696
	.word	-1086863501
	.word	-355600557
	.word	1537932639
	.word	342834655
	.word	-2032450440
	.word	-2114736182
	.word	1053059257
	.word	741614648
	.word	1598071746
	.word	1925389590
	.word	203809468
	.word	-1958134744
	.word	1100287487
	.word	1895934009
	.word	-558691320
	.word	-1662733096
	.word	-1866377628
	.word	1636092795
	.word	1890988757
	.word	1952214088
	.word	1113045200
	.section	.rodata.RT1,"a"
	.align	2
	.type	RT1, %object
	.size	RT1, 1024
RT1:
	.word	-1477160624
	.word	1698790995
	.word	-1541989693
	.word	1579629206
	.word	1806384075
	.word	1167925233
	.word	1492823211
	.word	65227667
	.word	-97509291
	.word	1836494326
	.word	1993115793
	.word	1275262245
	.word	-672837636
	.word	-886389289
	.word	1144333952
	.word	-1553812081
	.word	1521606217
	.word	465184103
	.word	250234264
	.word	-1057071647
	.word	1966064386
	.word	-263421678
	.word	-1756983901
	.word	-103584826
	.word	1603208167
	.word	-1668147819
	.word	2054012907
	.word	1498584538
	.word	-2084645843
	.word	561273043
	.word	1776306473
	.word	-926314940
	.word	-1983744662
	.word	2039411832
	.word	1045993835
	.word	1907959773
	.word	1340194486
	.word	-1383534569
	.word	-1407137434
	.word	986611124
	.word	1256153880
	.word	823846274
	.word	860985184
	.word	2136171077
	.word	2003087840
	.word	-1368671356
	.word	-1602093540
	.word	722008468
	.word	1749577816
	.word	-45773031
	.word	1826526343
	.word	-126135625
	.word	-747394269
	.word	38499042
	.word	-1893735593
	.word	-1420466646
	.word	686535175
	.word	-1028313341
	.word	2076542618
	.word	137876389
	.word	-2027409166
	.word	-1514200142
	.word	1778582202
	.word	-2112426660
	.word	483363371
	.word	-1267095662
	.word	-234359824
	.word	-496415071
	.word	-187013683
	.word	-1106966827
	.word	1647628575
	.word	-22625142
	.word	1395537053
	.word	1442030240
	.word	-511048398
	.word	-336157579
	.word	-326956231
	.word	-278904662
	.word	-1619960314
	.word	275692881
	.word	-1977532679
	.word	115185213
	.word	88006062
	.word	-1108980410
	.word	-1923837515
	.word	1573155077
	.word	-737803153
	.word	357589247
	.word	-73918172
	.word	-373434729
	.word	1128303052
	.word	-1629919369
	.word	1122545853
	.word	-1953953912
	.word	1528424248
	.word	-288851493
	.word	175939911
	.word	256015593
	.word	512030921
	.word	0
	.word	-2038429309
	.word	-315936184
	.word	1880170156
	.word	1918528590
	.word	-15794693
	.word	948244310
	.word	-710001378
	.word	959264295
	.word	-653325724
	.word	-1503893471
	.word	1415289809
	.word	775300154
	.word	1728711857
	.word	-413691121
	.word	-1762741038
	.word	-1852105826
	.word	-977239985
	.word	551313826
	.word	1266113129
	.word	437394454
	.word	-1164713462
	.word	715178213
	.word	-534627261
	.word	387650077
	.word	218697227
	.word	-947129683
	.word	-1464455751
	.word	-1457646392
	.word	435246981
	.word	125153100
	.word	-577114437
	.word	1618977789
	.word	637663135
	.word	-177054532
	.word	996558021
	.word	2130402100
	.word	692292470
	.word	-970732580
	.word	-51530136
	.word	-236668829
	.word	-600713270
	.word	-2057092592
	.word	580326208
	.word	298222624
	.word	608863613
	.word	1035719416
	.word	855223825
	.word	-1591097491
	.word	798891339
	.word	817028339
	.word	1384517100
	.word	-473860144
	.word	380840812
	.word	-1183798887
	.word	1217663482
	.word	1693009698
	.word	-1929598780
	.word	1072734234
	.word	746411736
	.word	-1875696913
	.word	1313441735
	.word	-784803391
	.word	-1563783938
	.word	198481974
	.word	-2114607409
	.word	-562387672
	.word	-1900553690
	.word	-1079165020
	.word	-1657131804
	.word	-1837608947
	.word	-866162021
	.word	1182684258
	.word	328070850
	.word	-1193766680
	.word	-147247522
	.word	-1346141451
	.word	-2141347906
	.word	-1815058052
	.word	768962473
	.word	304467891
	.word	-1716729797
	.word	2098729127
	.word	1671227502
	.word	-1153705093
	.word	2015808777
	.word	408514292
	.word	-1214583807
	.word	-1706064984
	.word	1855317605
	.word	-419452290
	.word	-809754360
	.word	-401215514
	.word	-1679312167
	.word	913263310
	.word	161475284
	.word	2091919830
	.word	-1297862225
	.word	591342129
	.word	-1801075152
	.word	1721906624
	.word	-1135709129
	.word	-897385306
	.word	-795811664
	.word	-660131051
	.word	-1744506550
	.word	-622050825
	.word	1355644686
	.word	-158263505
	.word	-699566451
	.word	-1326496947
	.word	1303039060
	.word	76997855
	.word	-1244553501
	.word	-2006299621
	.word	523026872
	.word	1365591679
	.word	-362898172
	.word	898367837
	.word	1955068531
	.word	1091304238
	.word	493335386
	.word	-757362094
	.word	1443948851
	.word	1205234963
	.word	1641519756
	.word	211892090
	.word	351820174
	.word	1007938441
	.word	665439982
	.word	-916342987
	.word	-451091987
	.word	-1320715716
	.word	-539845543
	.word	1945261375
	.word	-837543815
	.word	935818175
	.word	-839429142
	.word	-1426235557
	.word	1866325780
	.word	-616269690
	.word	-206583167
	.word	-999769794
	.word	874788908
	.word	1084473951
	.word	-1021503886
	.word	635616268
	.word	1228679307
	.word	-1794244799
	.word	27801969
	.word	-1291056930
	.word	-457910116
	.word	-1051302768
	.word	-2067039391
	.word	-1238182544
	.word	1550600308
	.word	1471729730
	.section	.rodata.RT2,"a"
	.align	2
	.type	RT2, %object
	.size	RT2, 1024
RT2:
	.word	-195997529
	.word	1098797925
	.word	387629988
	.word	658151006
	.word	-1422144661
	.word	-1658851003
	.word	-89347240
	.word	-481586429
	.word	807425530
	.word	1991112301
	.word	-863465098
	.word	49620300
	.word	-447742761
	.word	717608907
	.word	891715652
	.word	1656065955
	.word	-1310832294
	.word	-1171953893
	.word	-364537842
	.word	-27401792
	.word	801309301
	.word	1283527408
	.word	1183687575
	.word	-747911431
	.word	-1895569569
	.word	-1844079204
	.word	1841294202
	.word	1385552473
	.word	-1093390973
	.word	1951978273
	.word	-532076183
	.word	-913423160
	.word	-1032492407
	.word	-1896580999
	.word	1486449470
	.word	-1188569743
	.word	-507595185
	.word	-1997531219
	.word	550069932
	.word	-830622662
	.word	-547153846
	.word	451248689
	.word	1368875059
	.word	1398949247
	.word	1689378935
	.word	1807451310
	.word	-2114052960
	.word	150574123
	.word	1215322216
	.word	1167006205
	.word	-560691348
	.word	2069018616
	.word	1940595667
	.word	1265820162
	.word	534992783
	.word	1432758955
	.word	-340654296
	.word	-1255210046
	.word	-981034373
	.word	936617224
	.word	674296455
	.word	-1088179547
	.word	50510442
	.word	384654466
	.word	-813028580
	.word	2041025204
	.word	133427442
	.word	1766760930
	.word	-630862348
	.word	84334014
	.word	886120290
	.word	-1497068802
	.word	775200083
	.word	-207445931
	.word	-1979370783
	.word	-156994069
	.word	-2096416276
	.word	1614850799
	.word	1901987487
	.word	1857900816
	.word	557775242
	.word	-577356538
	.word	1054715397
	.word	-431143235
	.word	1418835341
	.word	-999226019
	.word	100954068
	.word	1348534037
	.word	-1743182597
	.word	-1110009879
	.word	1082772547
	.word	-647530594
	.word	-391070398
	.word	-1995994997
	.word	434583643
	.word	-931537938
	.word	2090944266
	.word	1115482383
	.word	-2064070370
	.word	0
	.word	-2146860154
	.word	724715757
	.word	287222896
	.word	1517047410
	.word	251526143
	.word	-2062592456
	.word	-1371726123
	.word	758523705
	.word	252339417
	.word	1550328230
	.word	1536938324
	.word	908343854
	.word	168604007
	.word	1469255655
	.word	-290139498
	.word	-1692688751
	.word	-1065332795
	.word	-597581280
	.word	2002413899
	.word	303830554
	.word	-1813902662
	.word	-1597971158
	.word	574374880
	.word	454171927
	.word	151915277
	.word	-1947030073
	.word	-1238517336
	.word	504678569
	.word	-245922535
	.word	1974422535
	.word	-1712407587
	.word	2141453664
	.word	33005350
	.word	1918680309
	.word	1715782971
	.word	-77908866
	.word	1133213225
	.word	600562886
	.word	-306812676
	.word	-457677839
	.word	836225756
	.word	1665273989
	.word	-1760346078
	.word	-964419567
	.word	1250262308
	.word	-1143801795
	.word	-106032846
	.word	700935585
	.word	-1642247377
	.word	-1294142672
	.word	-2045907886
	.word	-1049112349
	.word	-1288999914
	.word	1890163129
	.word	-1810761144
	.word	-381214108
	.word	-56048500
	.word	-257942977
	.word	2102843436
	.word	857927568
	.word	1233635150
	.word	953795025
	.word	-896729438
	.word	-728222197
	.word	-173617279
	.word	2057644254
	.word	-1210440050
	.word	-1388337985
	.word	976020637
	.word	2018512274
	.word	1600822220
	.word	2119459398
	.word	-1913208301
	.word	-661591880
	.word	959340279
	.word	-1014827601
	.word	1570750080
	.word	-798393197
	.word	-714102483
	.word	634368786
	.word	-1396163687
	.word	403744637
	.word	-1662488989
	.word	1004239803
	.word	650971512
	.word	1500443672
	.word	-1695809097
	.word	1334028442
	.word	-1780062866
	.word	-5603610
	.word	-1138685745
	.word	368043752
	.word	-407184997
	.word	1867173430
	.word	-1612000247
	.word	-1339435396
	.word	-1540247630
	.word	1059729699
	.word	-1513738092
	.word	-1573535642
	.word	1316239292
	.word	-2097371446
	.word	-1864322864
	.word	-1489824296
	.word	82922136
	.word	-331221030
	.word	-847311280
	.word	-1860751370
	.word	1299615190
	.word	-280801872
	.word	-1429449651
	.word	-1763385596
	.word	-778116171
	.word	1783372680
	.word	750893087
	.word	1699118929
	.word	1587348714
	.word	-1946067659
	.word	-2013629580
	.word	201010753
	.word	1739807261
	.word	-611167534
	.word	283718486
	.word	-697494713
	.word	-677737375
	.word	-1590199796
	.word	-128348652
	.word	334203196
	.word	-1446056409
	.word	1639396809
	.word	484568549
	.word	1199193265
	.word	-761505313
	.word	-229294221
	.word	337148366
	.word	-948715721
	.word	-145495347
	.word	-44082262
	.word	1038029935
	.word	1148749531
	.word	-1345682957
	.word	1756970692
	.word	607661108
	.word	-1547542720
	.word	488010435
	.word	-490992603
	.word	1009290057
	.word	234832277
	.word	-1472630527
	.word	201907891
	.word	-1260872476
	.word	1449431233
	.word	-881106556
	.word	852848822
	.word	1816687708
	.word	-1194311081
	.section	.rodata.RT3,"a"
	.align	2
	.type	RT3, %object
	.size	RT3, 1024
RT3:
	.word	1364240372
	.word	2119394625
	.word	449029143
	.word	982933031
	.word	1003187115
	.word	535905693
	.word	-1398056710
	.word	1267925987
	.word	542505520
	.word	-1376359050
	.word	-2003732788
	.word	-182105086
	.word	1341970405
	.word	-975713494
	.word	645940277
	.word	-1248877726
	.word	-565617999
	.word	627514298
	.word	1167593194
	.word	1575076094
	.word	-1023249105
	.word	-2129465268
	.word	-1918658746
	.word	1808202195
	.word	65494927
	.word	362126482
	.word	-1075086739
	.word	-1780852398
	.word	-735214658
	.word	1490231668
	.word	1227450848
	.word	-1908094775
	.word	1969916354
	.word	-193431154
	.word	-1721024936
	.word	668823993
	.word	-1095348255
	.word	-266883704
	.word	-916018144
	.word	2108963534
	.word	1662536415
	.word	-444452582
	.word	-1755303087
	.word	1648721747
	.word	-1310689436
	.word	-1148932501
	.word	-31678335
	.word	-107730168
	.word	1884842056
	.word	-1894122171
	.word	-1803064098
	.word	1387788411
	.word	-1423715469
	.word	1927414347
	.word	-480800993
	.word	1714072405
	.word	-1308153621
	.word	788775605
	.word	-2036696123
	.word	-744159177
	.word	821200680
	.word	598910399
	.word	45771267
	.word	-312704490
	.word	-1976886065
	.word	-1483557767
	.word	-202313209
	.word	1319232105
	.word	1707996378
	.word	114671109
	.word	-786472396
	.word	-997523802
	.word	882725678
	.word	-1566550541
	.word	87220618
	.word	-1535775754
	.word	188345475
	.word	1084944224
	.word	1577492337
	.word	-1118760850
	.word	1056541217
	.word	-1774385443
	.word	-575797954
	.word	1296481766
	.word	-1850372780
	.word	1896177092
	.word	74437638
	.word	1627329872
	.word	421854104
	.word	-694687299
	.word	-1983102144
	.word	1735892697
	.word	-1329773848
	.word	126389129
	.word	-415737063
	.word	2044456648
	.word	-1589179780
	.word	2095648578
	.word	-121037180
	.word	0
	.word	159614592
	.word	843640107
	.word	514617361
	.word	1817080410
	.word	-33816818
	.word	257308805
	.word	1025430958
	.word	908540205
	.word	174381327
	.word	1747035740
	.word	-1680780197
	.word	607792694
	.word	212952842
	.word	-1827674281
	.word	-1261267218
	.word	463376795
	.word	-2142255680
	.word	1638015196
	.word	1516850039
	.word	471210514
	.word	-502613357
	.word	-1058723168
	.word	1011081250
	.word	303896347
	.word	235605257
	.word	-223492213
	.word	767142070
	.word	348694814
	.word	1468340721
	.word	-1353971851
	.word	-289677927
	.word	-1543675777
	.word	-140564991
	.word	1555887474
	.word	1153776486
	.word	1530167035
	.word	-1955190461
	.word	-874723805
	.word	-1234633491
	.word	-1201409564
	.word	-674571215
	.word	1108378979
	.word	322970263
	.word	-2078273082
	.word	-2055396278
	.word	-755483205
	.word	-1374604551
	.word	-949116631
	.word	491466654
	.word	-588042062
	.word	233591430
	.word	2010178497
	.word	728503987
	.word	-1449543312
	.word	301615252
	.word	1193436393
	.word	-1463513860
	.word	-1608892432
	.word	1457007741
	.word	586125363
	.word	-2016981431
	.word	-641609416
	.word	-1929469238
	.word	-1741288492
	.word	-1496350219
	.word	-1524048262
	.word	-635007305
	.word	1067761581
	.word	753179962
	.word	1343066744
	.word	1788595295
	.word	1415726718
	.word	-155053171
	.word	-1863796520
	.word	777975609
	.word	-2097827901
	.word	-1614905251
	.word	1769771984
	.word	1873358293
	.word	-810347995
	.word	-935618132
	.word	279411992
	.word	-395418724
	.word	-612648133
	.word	-855017434
	.word	1861490777
	.word	-335431782
	.word	-2086102449
	.word	-429560171
	.word	-1434523905
	.word	554225596
	.word	-270079979
	.word	-1160143897
	.word	1255028335
	.word	-355202657
	.word	701922480
	.word	833598116
	.word	707863359
	.word	-969894747
	.word	901801634
	.word	1949809742
	.word	-56178046
	.word	-525283184
	.word	857069735
	.word	-246769660
	.word	1106762476
	.word	2131644621
	.word	389019281
	.word	1989006925
	.word	1129165039
	.word	-866890326
	.word	-455146346
	.word	-1629243951
	.word	1276872810
	.word	-1044898004
	.word	1182749029
	.word	-1660622242
	.word	22885772
	.word	-93096825
	.word	-80854773
	.word	-1285939865
	.word	-1840065829
	.word	-382511600
	.word	1829980118
	.word	-1702075945
	.word	930745505
	.word	1502483704
	.word	-343327725
	.word	-823253079
	.word	-1221211807
	.word	-504503012
	.word	2050797895
	.word	-1671831598
	.word	1430221810
	.word	410635796
	.word	1941911495
	.word	1407897079
	.word	1599843069
	.word	-552308931
	.word	2022103876
	.word	-897453137
	.word	-1187068824
	.word	942421028
	.word	-1033944925
	.word	376619805
	.word	-1140054558
	.word	680216892
	.word	-12479219
	.word	963707304
	.word	148812556
	.word	-660806476
	.word	1687208278
	.word	2069988555
	.word	-714033614
	.word	1215585388
	.word	-800958536
	.section	.rodata.RCON,"a"
	.align	2
	.type	RCON, %object
	.size	RCON, 40
RCON:
	.word	1
	.word	2
	.word	4
	.word	8
	.word	16
	.word	32
	.word	64
	.word	128
	.word	27
	.word	54
	.section	.text.mbedtls_aes_init,"ax",%progbits
	.align	1
	.global	mbedtls_aes_init
	.syntax unified
	.thumb
	.thumb_func
	.fpu fpv4-sp-d16
	.type	mbedtls_aes_init, %function
mbedtls_aes_init:
.LFB1:
	.loc 1 468 1
	@ args = 0, pretend = 0, frame = 8
	@ frame_needed = 0, uses_anonymous_args = 0
	push	{lr}
.LCFI2:
	sub	sp, sp, #12
.LCFI3:
	str	r0, [sp, #4]
	.loc 1 469 5
	mov	r2, #280
	movs	r1, #0
	ldr	r0, [sp, #4]
	bl	memset
	.loc 1 470 1
	nop
	add	sp, sp, #12
.LCFI4:
	@ sp needed
	ldr	pc, [sp], #4
.LFE1:
	.size	mbedtls_aes_init, .-mbedtls_aes_init
	.section	.text.mbedtls_aes_free,"ax",%progbits
	.align	1
	.global	mbedtls_aes_free
	.syntax unified
	.thumb
	.thumb_func
	.fpu fpv4-sp-d16
	.type	mbedtls_aes_free, %function
mbedtls_aes_free:
.LFB2:
	.loc 1 473 1
	@ args = 0, pretend = 0, frame = 8
	@ frame_needed = 0, uses_anonymous_args = 0
	push	{lr}
.LCFI5:
	sub	sp, sp, #12
.LCFI6:
	str	r0, [sp, #4]
	.loc 1 474 7
	ldr	r3, [sp, #4]
	cmp	r3, #0
	beq	.L8
	.loc 1 477 5
	mov	r1, #280
	ldr	r0, [sp, #4]
	bl	mbedtls_zeroize
	b	.L5
.L8:
	.loc 1 475 9
	nop
.L5:
	.loc 1 478 1
	add	sp, sp, #12
.LCFI7:
	@ sp needed
	ldr	pc, [sp], #4
.LFE2:
	.size	mbedtls_aes_free, .-mbedtls_aes_free
	.section	.text.mbedtls_aes_setkey_enc,"ax",%progbits
	.align	1
	.global	mbedtls_aes_setkey_enc
	.syntax unified
	.thumb
	.thumb_func
	.fpu fpv4-sp-d16
	.type	mbedtls_aes_setkey_enc, %function
mbedtls_aes_setkey_enc:
.LFB3:
	.loc 1 486 1
	@ args = 0, pretend = 0, frame = 24
	@ frame_needed = 0, uses_anonymous_args = 0
	@ link register save eliminated.
	sub	sp, sp, #24
.LCFI8:
	str	r0, [sp, #12]
	str	r1, [sp, #8]
	str	r2, [sp, #4]
	.loc 1 499 5
	ldr	r3, [sp, #4]
	cmp	r3, #256
	beq	.L10
	ldr	r3, [sp, #4]
	cmp	r3, #256
	bhi	.L11
	ldr	r3, [sp, #4]
	cmp	r3, #128
	beq	.L12
	ldr	r3, [sp, #4]
	cmp	r3, #192
	beq	.L13
	b	.L11
.L12:
	.loc 1 501 27
	ldr	r3, [sp, #12]
	movs	r2, #10
	str	r2, [r3]
	.loc 1 501 9
	b	.L14
.L13:
	.loc 1 502 27
	ldr	r3, [sp, #12]
	movs	r2, #12
	str	r2, [r3]
	.loc 1 502 9
	b	.L14
.L10:
	.loc 1 503 27
	ldr	r3, [sp, #12]
	movs	r2, #14
	str	r2, [r3]
	.loc 1 503 9
	b	.L14
.L11:
	.loc 1 504 25
	mvn	r3, #31
	b	.L15
.L14:
	.loc 1 515 18
	ldr	r3, [sp, #12]
	adds	r3, r3, #8
	str	r3, [sp, #16]
	.loc 1 515 13
	ldr	r3, [sp, #12]
	ldr	r2, [sp, #16]
	str	r2, [r3, #4]
	.loc 1 522 12
	movs	r3, #0
	str	r3, [sp, #20]
	.loc 1 522 5
	b	.L16
.L17:
	.loc 1 524 9 discriminator 3
	ldr	r3, [sp, #20]
	lsls	r3, r3, #2
	ldr	r2, [sp, #8]
	add	r3, r3, r2
	ldrb	r3, [r3]	@ zero_extendqisi2
	mov	r1, r3
	ldr	r3, [sp, #20]
	lsls	r3, r3, #2
	adds	r3, r3, #1
	ldr	r2, [sp, #8]
	add	r3, r3, r2
	ldrb	r3, [r3]	@ zero_extendqisi2
	lsls	r3, r3, #8
	orr	r2, r1, r3
	ldr	r3, [sp, #20]
	lsls	r3, r3, #2
	adds	r3, r3, #2
	ldr	r1, [sp, #8]
	add	r3, r3, r1
	ldrb	r3, [r3]	@ zero_extendqisi2
	lsls	r3, r3, #16
	orr	r1, r2, r3
	ldr	r3, [sp, #20]
	lsls	r3, r3, #2
	adds	r3, r3, #3
	ldr	r2, [sp, #8]
	add	r3, r3, r2
	ldrb	r3, [r3]	@ zero_extendqisi2
	lsls	r2, r3, #24
	ldr	r3, [sp, #20]
	lsls	r3, r3, #2
	ldr	r0, [sp, #16]
	add	r3, r3, r0
	orrs	r2, r2, r1
	str	r2, [r3]
	.loc 1 522 40 discriminator 3
	ldr	r3, [sp, #20]
	adds	r3, r3, #1
	str	r3, [sp, #20]
.L16:
	.loc 1 522 31 discriminator 1
	ldr	r3, [sp, #4]
	lsrs	r3, r3, #5
	.loc 1 522 5 discriminator 1
	ldr	r2, [sp, #20]
	cmp	r2, r3
	bcc	.L17
	.loc 1 527 16
	ldr	r3, [sp, #12]
	ldr	r3, [r3]
	.loc 1 527 5
	cmp	r3, #14
	beq	.L18
	cmp	r3, #14
	bgt	.L19
	cmp	r3, #10
	beq	.L20
	cmp	r3, #12
	beq	.L21
	b	.L19
.L20:
	.loc 1 531 20
	movs	r3, #0
	str	r3, [sp, #20]
	.loc 1 531 13
	b	.L22
.L23:
	.loc 1 533 28 discriminator 3
	ldr	r3, [sp, #16]
	ldr	r2, [r3]
	.loc 1 533 38 discriminator 3
	ldr	r1, .L28
	ldr	r3, [sp, #20]
	ldr	r3, [r1, r3, lsl #2]
	.loc 1 533 32 discriminator 3
	eors	r3, r3, r2
	.loc 1 534 39 discriminator 3
	ldr	r2, [sp, #16]
	adds	r2, r2, #12
	ldr	r2, [r2]
	.loc 1 534 43 discriminator 3
	lsrs	r2, r2, #8
	.loc 1 534 51 discriminator 3
	uxtb	r2, r2
	.loc 1 534 33 discriminator 3
	ldr	r1, .L28+4
	ldrb	r2, [r1, r2]	@ zero_extendqisi2
	.loc 1 533 42 discriminator 3
	eors	r2, r2, r3
	.loc 1 535 39 discriminator 3
	ldr	r3, [sp, #16]
	adds	r3, r3, #12
	ldr	r3, [r3]
	.loc 1 535 43 discriminator 3
	lsrs	r3, r3, #16
	.loc 1 535 51 discriminator 3
	uxtb	r3, r3
	.loc 1 535 33 discriminator 3
	ldr	r1, .L28+4
	ldrb	r3, [r1, r3]	@ zero_extendqisi2
	.loc 1 535 60 discriminator 3
	lsls	r3, r3, #8
	.loc 1 534 68 discriminator 3
	eors	r2, r2, r3
	.loc 1 536 39 discriminator 3
	ldr	r3, [sp, #16]
	adds	r3, r3, #12
	ldr	r3, [r3]
	.loc 1 536 51 discriminator 3
	lsrs	r3, r3, #24
	.loc 1 536 33 discriminator 3
	ldr	r1, .L28+4
	ldrb	r3, [r1, r3]	@ zero_extendqisi2
	.loc 1 536 60 discriminator 3
	lsls	r3, r3, #16
	.loc 1 535 68 discriminator 3
	eor	r1, r2, r3
	.loc 1 537 39 discriminator 3
	ldr	r3, [sp, #16]
	adds	r3, r3, #12
	ldr	r3, [r3]
	.loc 1 537 51 discriminator 3
	uxtb	r3, r3
	.loc 1 537 33 discriminator 3
	ldr	r2, .L28+4
	ldrb	r3, [r2, r3]	@ zero_extendqisi2
	.loc 1 537 60 discriminator 3
	lsls	r2, r3, #24
	.loc 1 533 19 discriminator 3
	ldr	r3, [sp, #16]
	adds	r3, r3, #16
	.loc 1 536 68 discriminator 3
	eors	r2, r2, r1
	.loc 1 533 24 discriminator 3
	str	r2, [r3]
	.loc 1 539 28 discriminator 3
	ldr	r3, [sp, #16]
	adds	r3, r3, #4
	ldr	r1, [r3]
	.loc 1 539 36 discriminator 3
	ldr	r3, [sp, #16]
	adds	r3, r3, #16
	ldr	r2, [r3]
	.loc 1 539 19 discriminator 3
	ldr	r3, [sp, #16]
	adds	r3, r3, #20
	.loc 1 539 32 discriminator 3
	eors	r2, r2, r1
	.loc 1 539 24 discriminator 3
	str	r2, [r3]
	.loc 1 540 28 discriminator 3
	ldr	r3, [sp, #16]
	adds	r3, r3, #8
	ldr	r1, [r3]
	.loc 1 540 36 discriminator 3
	ldr	r3, [sp, #16]
	adds	r3, r3, #20
	ldr	r2, [r3]
	.loc 1 540 19 discriminator 3
	ldr	r3, [sp, #16]
	adds	r3, r3, #24
	.loc 1 540 32 discriminator 3
	eors	r2, r2, r1
	.loc 1 540 24 discriminator 3
	str	r2, [r3]
	.loc 1 541 28 discriminator 3
	ldr	r3, [sp, #16]
	adds	r3, r3, #12
	ldr	r1, [r3]
	.loc 1 541 36 discriminator 3
	ldr	r3, [sp, #16]
	adds	r3, r3, #24
	ldr	r2, [r3]
	.loc 1 541 19 discriminator 3
	ldr	r3, [sp, #16]
	adds	r3, r3, #28
	.loc 1 541 32 discriminator 3
	eors	r2, r2, r1
	.loc 1 541 24 discriminator 3
	str	r2, [r3]
	.loc 1 531 34 discriminator 3
	ldr	r3, [sp, #20]
	adds	r3, r3, #1
	str	r3, [sp, #20]
	.loc 1 531 41 discriminator 3
	ldr	r3, [sp, #16]
	adds	r3, r3, #16
	str	r3, [sp, #16]
.L22:
	.loc 1 531 13 discriminator 1
	ldr	r3, [sp, #20]
	cmp	r3, #9
	bls	.L23
	.loc 1 543 13
	b	.L19
.L21:
	.loc 1 547 20
	movs	r3, #0
	str	r3, [sp, #20]
	.loc 1 547 13
	b	.L24
.L25:
	.loc 1 549 28 discriminator 3
	ldr	r3, [sp, #16]
	ldr	r2, [r3]
	.loc 1 549 38 discriminator 3
	ldr	r1, .L28
	ldr	r3, [sp, #20]
	ldr	r3, [r1, r3, lsl #2]
	.loc 1 549 32 discriminator 3
	eors	r3, r3, r2
	.loc 1 550 39 discriminator 3
	ldr	r2, [sp, #16]
	adds	r2, r2, #20
	ldr	r2, [r2]
	.loc 1 550 43 discriminator 3
	lsrs	r2, r2, #8
	.loc 1 550 51 discriminator 3
	uxtb	r2, r2
	.loc 1 550 33 discriminator 3
	ldr	r1, .L28+4
	ldrb	r2, [r1, r2]	@ zero_extendqisi2
	.loc 1 549 42 discriminator 3
	eors	r2, r2, r3
	.loc 1 551 39 discriminator 3
	ldr	r3, [sp, #16]
	adds	r3, r3, #20
	ldr	r3, [r3]
	.loc 1 551 43 discriminator 3
	lsrs	r3, r3, #16
	.loc 1 551 51 discriminator 3
	uxtb	r3, r3
	.loc 1 551 33 discriminator 3
	ldr	r1, .L28+4
	ldrb	r3, [r1, r3]	@ zero_extendqisi2
	.loc 1 551 60 discriminator 3
	lsls	r3, r3, #8
	.loc 1 550 68 discriminator 3
	eors	r2, r2, r3
	.loc 1 552 39 discriminator 3
	ldr	r3, [sp, #16]
	adds	r3, r3, #20
	ldr	r3, [r3]
	.loc 1 552 51 discriminator 3
	lsrs	r3, r3, #24
	.loc 1 552 33 discriminator 3
	ldr	r1, .L28+4
	ldrb	r3, [r1, r3]	@ zero_extendqisi2
	.loc 1 552 60 discriminator 3
	lsls	r3, r3, #16
	.loc 1 551 68 discriminator 3
	eor	r1, r2, r3
	.loc 1 553 39 discriminator 3
	ldr	r3, [sp, #16]
	adds	r3, r3, #20
	ldr	r3, [r3]
	.loc 1 553 51 discriminator 3
	uxtb	r3, r3
	.loc 1 553 33 discriminator 3
	ldr	r2, .L28+4
	ldrb	r3, [r2, r3]	@ zero_extendqisi2
	.loc 1 553 60 discriminator 3
	lsls	r2, r3, #24
	.loc 1 549 19 discriminator 3
	ldr	r3, [sp, #16]
	adds	r3, r3, #24
	.loc 1 552 68 discriminator 3
	eors	r2, r2, r1
	.loc 1 549 24 discriminator 3
	str	r2, [r3]
	.loc 1 555 28 discriminator 3
	ldr	r3, [sp, #16]
	adds	r3, r3, #4
	ldr	r1, [r3]
	.loc 1 555 36 discriminator 3
	ldr	r3, [sp, #16]
	adds	r3, r3, #24
	ldr	r2, [r3]
	.loc 1 555 19 discriminator 3
	ldr	r3, [sp, #16]
	adds	r3, r3, #28
	.loc 1 555 32 discriminator 3
	eors	r2, r2, r1
	.loc 1 555 24 discriminator 3
	str	r2, [r3]
	.loc 1 556 28 discriminator 3
	ldr	r3, [sp, #16]
	adds	r3, r3, #8
	ldr	r1, [r3]
	.loc 1 556 36 discriminator 3
	ldr	r3, [sp, #16]
	adds	r3, r3, #28
	ldr	r2, [r3]
	.loc 1 556 19 discriminator 3
	ldr	r3, [sp, #16]
	adds	r3, r3, #32
	.loc 1 556 32 discriminator 3
	eors	r2, r2, r1
	.loc 1 556 24 discriminator 3
	str	r2, [r3]
	.loc 1 557 28 discriminator 3
	ldr	r3, [sp, #16]
	adds	r3, r3, #12
	ldr	r1, [r3]
	.loc 1 557 36 discriminator 3
	ldr	r3, [sp, #16]
	adds	r3, r3, #32
	ldr	r2, [r3]
	.loc 1 557 19 discriminator 3
	ldr	r3, [sp, #16]
	adds	r3, r3, #36
	.loc 1 557 32 discriminator 3
	eors	r2, r2, r1
	.loc 1 557 24 discriminator 3
	str	r2, [r3]
	.loc 1 558 28 discriminator 3
	ldr	r3, [sp, #16]
	adds	r3, r3, #16
	ldr	r1, [r3]
	.loc 1 558 36 discriminator 3
	ldr	r3, [sp, #16]
	adds	r3, r3, #36
	ldr	r2, [r3]
	.loc 1 558 19 discriminator 3
	ldr	r3, [sp, #16]
	adds	r3, r3, #40
	.loc 1 558 32 discriminator 3
	eors	r2, r2, r1
	.loc 1 558 24 discriminator 3
	str	r2, [r3]
	.loc 1 559 28 discriminator 3
	ldr	r3, [sp, #16]
	adds	r3, r3, #20
	ldr	r1, [r3]
	.loc 1 559 36 discriminator 3
	ldr	r3, [sp, #16]
	adds	r3, r3, #40
	ldr	r2, [r3]
	.loc 1 559 19 discriminator 3
	ldr	r3, [sp, #16]
	adds	r3, r3, #44
	.loc 1 559 32 discriminator 3
	eors	r2, r2, r1
	.loc 1 559 24 discriminator 3
	str	r2, [r3]
	.loc 1 547 33 discriminator 3
	ldr	r3, [sp, #20]
	adds	r3, r3, #1
	str	r3, [sp, #20]
	.loc 1 547 40 discriminator 3
	ldr	r3, [sp, #16]
	adds	r3, r3, #24
	str	r3, [sp, #16]
.L24:
	.loc 1 547 13 discriminator 1
	ldr	r3, [sp, #20]
	cmp	r3, #7
	bls	.L25
	.loc 1 561 13
	b	.L19
.L18:
	.loc 1 565 20
	movs	r3, #0
	str	r3, [sp, #20]
	.loc 1 565 13
	b	.L26
.L29:
	.align	2
.L28:
	.word	RCON
	.word	FSb
.L27:
	.loc 1 567 28 discriminator 3
	ldr	r3, [sp, #16]
	ldr	r2, [r3]
	.loc 1 567 38 discriminator 3
	ldr	r1, .L30
	ldr	r3, [sp, #20]
	ldr	r3, [r1, r3, lsl #2]
	.loc 1 567 32 discriminator 3
	eors	r3, r3, r2
	.loc 1 568 39 discriminator 3
	ldr	r2, [sp, #16]
	adds	r2, r2, #28
	ldr	r2, [r2]
	.loc 1 568 43 discriminator 3
	lsrs	r2, r2, #8
	.loc 1 568 51 discriminator 3
	uxtb	r2, r2
	.loc 1 568 33 discriminator 3
	ldr	r1, .L30+4
	ldrb	r2, [r1, r2]	@ zero_extendqisi2
	.loc 1 567 42 discriminator 3
	eors	r2, r2, r3
	.loc 1 569 39 discriminator 3
	ldr	r3, [sp, #16]
	adds	r3, r3, #28
	ldr	r3, [r3]
	.loc 1 569 43 discriminator 3
	lsrs	r3, r3, #16
	.loc 1 569 51 discriminator 3
	uxtb	r3, r3
	.loc 1 569 33 discriminator 3
	ldr	r1, .L30+4
	ldrb	r3, [r1, r3]	@ zero_extendqisi2
	.loc 1 569 60 discriminator 3
	lsls	r3, r3, #8
	.loc 1 568 68 discriminator 3
	eors	r2, r2, r3
	.loc 1 570 39 discriminator 3
	ldr	r3, [sp, #16]
	adds	r3, r3, #28
	ldr	r3, [r3]
	.loc 1 570 51 discriminator 3
	lsrs	r3, r3, #24
	.loc 1 570 33 discriminator 3
	ldr	r1, .L30+4
	ldrb	r3, [r1, r3]	@ zero_extendqisi2
	.loc 1 570 60 discriminator 3
	lsls	r3, r3, #16
	.loc 1 569 68 discriminator 3
	eor	r1, r2, r3
	.loc 1 571 39 discriminator 3
	ldr	r3, [sp, #16]
	adds	r3, r3, #28
	ldr	r3, [r3]
	.loc 1 571 51 discriminator 3
	uxtb	r3, r3
	.loc 1 571 33 discriminator 3
	ldr	r2, .L30+4
	ldrb	r3, [r2, r3]	@ zero_extendqisi2
	.loc 1 571 60 discriminator 3
	lsls	r2, r3, #24
	.loc 1 567 19 discriminator 3
	ldr	r3, [sp, #16]
	adds	r3, r3, #32
	.loc 1 570 68 discriminator 3
	eors	r2, r2, r1
	.loc 1 567 24 discriminator 3
	str	r2, [r3]
	.loc 1 573 28 discriminator 3
	ldr	r3, [sp, #16]
	adds	r3, r3, #4
	ldr	r1, [r3]
	.loc 1 573 36 discriminator 3
	ldr	r3, [sp, #16]
	adds	r3, r3, #32
	ldr	r2, [r3]
	.loc 1 573 19 discriminator 3
	ldr	r3, [sp, #16]
	adds	r3, r3, #36
	.loc 1 573 32 discriminator 3
	eors	r2, r2, r1
	.loc 1 573 24 discriminator 3
	str	r2, [r3]
	.loc 1 574 28 discriminator 3
	ldr	r3, [sp, #16]
	adds	r3, r3, #8
	ldr	r1, [r3]
	.loc 1 574 36 discriminator 3
	ldr	r3, [sp, #16]
	adds	r3, r3, #36
	ldr	r2, [r3]
	.loc 1 574 19 discriminator 3
	ldr	r3, [sp, #16]
	adds	r3, r3, #40
	.loc 1 574 32 discriminator 3
	eors	r2, r2, r1
	.loc 1 574 24 discriminator 3
	str	r2, [r3]
	.loc 1 575 28 discriminator 3
	ldr	r3, [sp, #16]
	adds	r3, r3, #12
	ldr	r1, [r3]
	.loc 1 575 36 discriminator 3
	ldr	r3, [sp, #16]
	adds	r3, r3, #40
	ldr	r2, [r3]
	.loc 1 575 19 discriminator 3
	ldr	r3, [sp, #16]
	adds	r3, r3, #44
	.loc 1 575 32 discriminator 3
	eors	r2, r2, r1
	.loc 1 575 24 discriminator 3
	str	r2, [r3]
	.loc 1 577 28 discriminator 3
	ldr	r3, [sp, #16]
	adds	r3, r3, #16
	ldr	r3, [r3]
	.loc 1 578 39 discriminator 3
	ldr	r2, [sp, #16]
	adds	r2, r2, #44
	ldr	r2, [r2]
	.loc 1 578 52 discriminator 3
	uxtb	r2, r2
	.loc 1 578 33 discriminator 3
	ldr	r1, .L30+4
	ldrb	r2, [r1, r2]	@ zero_extendqisi2
	.loc 1 577 32 discriminator 3
	eors	r2, r2, r3
	.loc 1 579 39 discriminator 3
	ldr	r3, [sp, #16]
	adds	r3, r3, #44
	ldr	r3, [r3]
	.loc 1 579 44 discriminator 3
	lsrs	r3, r3, #8
	.loc 1 579 52 discriminator 3
	uxtb	r3, r3
	.loc 1 579 33 discriminator 3
	ldr	r1, .L30+4
	ldrb	r3, [r1, r3]	@ zero_extendqisi2
	.loc 1 579 61 discriminator 3
	lsls	r3, r3, #8
	.loc 1 578 69 discriminator 3
	eors	r2, r2, r3
	.loc 1 580 39 discriminator 3
	ldr	r3, [sp, #16]
	adds	r3, r3, #44
	ldr	r3, [r3]
	.loc 1 580 44 discriminator 3
	lsrs	r3, r3, #16
	.loc 1 580 52 discriminator 3
	uxtb	r3, r3
	.loc 1 580 33 discriminator 3
	ldr	r1, .L30+4
	ldrb	r3, [r1, r3]	@ zero_extendqisi2
	.loc 1 580 61 discriminator 3
	lsls	r3, r3, #16
	.loc 1 579 69 discriminator 3
	eor	r1, r2, r3
	.loc 1 581 39 discriminator 3
	ldr	r3, [sp, #16]
	adds	r3, r3, #44
	ldr	r3, [r3]
	.loc 1 581 52 discriminator 3
	lsrs	r3, r3, #24
	.loc 1 581 33 discriminator 3
	ldr	r2, .L30+4
	ldrb	r3, [r2, r3]	@ zero_extendqisi2
	.loc 1 581 61 discriminator 3
	lsls	r2, r3, #24
	.loc 1 577 19 discriminator 3
	ldr	r3, [sp, #16]
	adds	r3, r3, #48
	.loc 1 580 69 discriminator 3
	eors	r2, r2, r1
	.loc 1 577 24 discriminator 3
	str	r2, [r3]
	.loc 1 583 28 discriminator 3
	ldr	r3, [sp, #16]
	adds	r3, r3, #20
	ldr	r1, [r3]
	.loc 1 583 36 discriminator 3
	ldr	r3, [sp, #16]
	adds	r3, r3, #48
	ldr	r2, [r3]
	.loc 1 583 19 discriminator 3
	ldr	r3, [sp, #16]
	adds	r3, r3, #52
	.loc 1 583 32 discriminator 3
	eors	r2, r2, r1
	.loc 1 583 24 discriminator 3
	str	r2, [r3]
	.loc 1 584 28 discriminator 3
	ldr	r3, [sp, #16]
	adds	r3, r3, #24
	ldr	r1, [r3]
	.loc 1 584 36 discriminator 3
	ldr	r3, [sp, #16]
	adds	r3, r3, #52
	ldr	r2, [r3]
	.loc 1 584 19 discriminator 3
	ldr	r3, [sp, #16]
	adds	r3, r3, #56
	.loc 1 584 32 discriminator 3
	eors	r2, r2, r1
	.loc 1 584 24 discriminator 3
	str	r2, [r3]
	.loc 1 585 28 discriminator 3
	ldr	r3, [sp, #16]
	adds	r3, r3, #28
	ldr	r1, [r3]
	.loc 1 585 36 discriminator 3
	ldr	r3, [sp, #16]
	adds	r3, r3, #56
	ldr	r2, [r3]
	.loc 1 585 19 discriminator 3
	ldr	r3, [sp, #16]
	adds	r3, r3, #60
	.loc 1 585 32 discriminator 3
	eors	r2, r2, r1
	.loc 1 585 24 discriminator 3
	str	r2, [r3]
	.loc 1 565 33 discriminator 3
	ldr	r3, [sp, #20]
	adds	r3, r3, #1
	str	r3, [sp, #20]
	.loc 1 565 40 discriminator 3
	ldr	r3, [sp, #16]
	adds	r3, r3, #32
	str	r3, [sp, #16]
.L26:
	.loc 1 565 13 discriminator 1
	ldr	r3, [sp, #20]
	cmp	r3, #6
	bls	.L27
	.loc 1 587 13
	nop
.L19:
	.loc 1 590 11
	movs	r3, #0
.L15:
	.loc 1 591 1
	mov	r0, r3
	add	sp, sp, #24
.LCFI9:
	@ sp needed
	bx	lr
.L31:
	.align	2
.L30:
	.word	RCON
	.word	FSb
.LFE3:
	.size	mbedtls_aes_setkey_enc, .-mbedtls_aes_setkey_enc
	.section	.text.mbedtls_aes_setkey_dec,"ax",%progbits
	.align	1
	.global	mbedtls_aes_setkey_dec
	.syntax unified
	.thumb
	.thumb_func
	.fpu fpv4-sp-d16
	.type	mbedtls_aes_setkey_dec, %function
mbedtls_aes_setkey_dec:
.LFB4:
	.loc 1 600 1
	@ args = 0, pretend = 0, frame = 320
	@ frame_needed = 0, uses_anonymous_args = 0
	push	{lr}
.LCFI10:
	sub	sp, sp, #324
.LCFI11:
	add	r3, sp, #320
	sub	r3, r3, #308
	str	r0, [r3]
	add	r3, sp, #320
	sub	r3, r3, #312
	str	r1, [r3]
	add	r3, sp, #320
	sub	r3, r3, #316
	str	r2, [r3]
	.loc 1 606 5
	add	r3, sp, #20
	mov	r0, r3
	bl	mbedtls_aes_init
	.loc 1 616 18
	add	r3, sp, #320
	sub	r3, r3, #308
	ldr	r3, [r3]
	adds	r3, r3, #8
	str	r3, [sp, #308]
	.loc 1 616 13
	add	r3, sp, #320
	sub	r3, r3, #308
	ldr	r3, [r3]
	ldr	r2, [sp, #308]
	str	r2, [r3, #4]
	.loc 1 619 17
	add	r3, sp, #320
	sub	r2, r3, #316
	add	r3, sp, #320
	sub	r3, r3, #312
	add	r0, sp, #20
	ldr	r2, [r2]
	ldr	r1, [r3]
	bl	mbedtls_aes_setkey_enc
	str	r0, [sp, #300]
	.loc 1 619 7
	ldr	r3, [sp, #300]
	cmp	r3, #0
	bne	.L40
	.loc 1 622 18
	add	r3, sp, #320
	sub	r3, r3, #300
	ldr	r2, [r3]
	.loc 1 622 13
	add	r3, sp, #320
	sub	r3, r3, #308
	ldr	r3, [r3]
	str	r2, [r3]
	.loc 1 633 13
	add	r3, sp, #320
	sub	r3, r3, #300
	ldr	r2, [r3, #4]
	.loc 1 633 22
	add	r3, sp, #320
	sub	r3, r3, #300
	ldr	r3, [r3]
	.loc 1 633 17
	lsls	r3, r3, #4
	.loc 1 633 8
	add	r3, r3, r2
	str	r3, [sp, #304]
	.loc 1 635 16
	ldr	r2, [sp, #304]
	adds	r3, r2, #4
	str	r3, [sp, #304]
	.loc 1 635 8
	ldr	r3, [sp, #308]
	adds	r1, r3, #4
	str	r1, [sp, #308]
	.loc 1 635 13
	ldr	r2, [r2]
	.loc 1 635 11
	str	r2, [r3]
	.loc 1 636 16
	ldr	r2, [sp, #304]
	adds	r3, r2, #4
	str	r3, [sp, #304]
	.loc 1 636 8
	ldr	r3, [sp, #308]
	adds	r1, r3, #4
	str	r1, [sp, #308]
	.loc 1 636 13
	ldr	r2, [r2]
	.loc 1 636 11
	str	r2, [r3]
	.loc 1 637 16
	ldr	r2, [sp, #304]
	adds	r3, r2, #4
	str	r3, [sp, #304]
	.loc 1 637 8
	ldr	r3, [sp, #308]
	adds	r1, r3, #4
	str	r1, [sp, #308]
	.loc 1 637 13
	ldr	r2, [r2]
	.loc 1 637 11
	str	r2, [r3]
	.loc 1 638 16
	ldr	r2, [sp, #304]
	adds	r3, r2, #4
	str	r3, [sp, #304]
	.loc 1 638 8
	ldr	r3, [sp, #308]
	adds	r1, r3, #4
	str	r1, [sp, #308]
	.loc 1 638 13
	ldr	r2, [r2]
	.loc 1 638 11
	str	r2, [r3]
	.loc 1 640 17
	add	r3, sp, #320
	sub	r3, r3, #308
	ldr	r3, [r3]
	ldr	r3, [r3]
	.loc 1 640 12
	subs	r3, r3, #1
	str	r3, [sp, #316]
	.loc 1 640 30
	ldr	r3, [sp, #304]
	subs	r3, r3, #32
	str	r3, [sp, #304]
	.loc 1 640 5
	b	.L35
.L38:
	.loc 1 642 16
	movs	r3, #0
	str	r3, [sp, #312]
	.loc 1 642 9
	b	.L36
.L37:
	.loc 1 644 33 discriminator 3
	ldr	r3, [sp, #304]
	ldr	r3, [r3]
	.loc 1 644 45 discriminator 3
	uxtb	r3, r3
	.loc 1 644 29 discriminator 3
	ldr	r2, .L41
	ldrb	r3, [r2, r3]	@ zero_extendqisi2
	mov	r2, r3
	.loc 1 644 24 discriminator 3
	ldr	r3, .L41+4
	ldr	r2, [r3, r2, lsl #2]
	.loc 1 645 33 discriminator 3
	ldr	r3, [sp, #304]
	ldr	r3, [r3]
	.loc 1 645 37 discriminator 3
	lsrs	r3, r3, #8
	.loc 1 645 45 discriminator 3
	uxtb	r3, r3
	.loc 1 645 29 discriminator 3
	ldr	r1, .L41
	ldrb	r3, [r1, r3]	@ zero_extendqisi2
	mov	r1, r3
	.loc 1 645 24 discriminator 3
	ldr	r3, .L41+8
	ldr	r3, [r3, r1, lsl #2]
	.loc 1 644 56 discriminator 3
	eors	r2, r2, r3
	.loc 1 646 33 discriminator 3
	ldr	r3, [sp, #304]
	ldr	r3, [r3]
	.loc 1 646 37 discriminator 3
	lsrs	r3, r3, #16
	.loc 1 646 45 discriminator 3
	uxtb	r3, r3
	.loc 1 646 29 discriminator 3
	ldr	r1, .L41
	ldrb	r3, [r1, r3]	@ zero_extendqisi2
	mov	r1, r3
	.loc 1 646 24 discriminator 3
	ldr	r3, .L41+12
	ldr	r3, [r3, r1, lsl #2]
	.loc 1 645 56 discriminator 3
	eor	r1, r2, r3
	.loc 1 647 33 discriminator 3
	ldr	r3, [sp, #304]
	ldr	r3, [r3]
	.loc 1 647 45 discriminator 3
	lsrs	r3, r3, #24
	.loc 1 647 29 discriminator 3
	ldr	r2, .L41
	ldrb	r3, [r2, r3]	@ zero_extendqisi2
	mov	r2, r3
	.loc 1 647 24 discriminator 3
	ldr	r3, .L41+16
	ldr	r2, [r3, r2, lsl #2]
	.loc 1 644 16 discriminator 3
	ldr	r3, [sp, #308]
	adds	r0, r3, #4
	str	r0, [sp, #308]
	.loc 1 646 56 discriminator 3
	eors	r2, r2, r1
	.loc 1 644 19 discriminator 3
	str	r2, [r3]
	.loc 1 642 29 discriminator 3
	ldr	r3, [sp, #312]
	adds	r3, r3, #1
	str	r3, [sp, #312]
	.loc 1 642 35 discriminator 3
	ldr	r3, [sp, #304]
	adds	r3, r3, #4
	str	r3, [sp, #304]
.L36:
	.loc 1 642 9 discriminator 1
	ldr	r3, [sp, #312]
	cmp	r3, #3
	ble	.L37
	.loc 1 640 44 discriminator 2
	ldr	r3, [sp, #316]
	subs	r3, r3, #1
	str	r3, [sp, #316]
	.loc 1 640 51 discriminator 2
	ldr	r3, [sp, #304]
	subs	r3, r3, #32
	str	r3, [sp, #304]
.L35:
	.loc 1 640 5 discriminator 1
	ldr	r3, [sp, #316]
	cmp	r3, #0
	bgt	.L38
	.loc 1 651 16
	ldr	r2, [sp, #304]
	adds	r3, r2, #4
	str	r3, [sp, #304]
	.loc 1 651 8
	ldr	r3, [sp, #308]
	adds	r1, r3, #4
	str	r1, [sp, #308]
	.loc 1 651 13
	ldr	r2, [r2]
	.loc 1 651 11
	str	r2, [r3]
	.loc 1 652 16
	ldr	r2, [sp, #304]
	adds	r3, r2, #4
	str	r3, [sp, #304]
	.loc 1 652 8
	ldr	r3, [sp, #308]
	adds	r1, r3, #4
	str	r1, [sp, #308]
	.loc 1 652 13
	ldr	r2, [r2]
	.loc 1 652 11
	str	r2, [r3]
	.loc 1 653 16
	ldr	r2, [sp, #304]
	adds	r3, r2, #4
	str	r3, [sp, #304]
	.loc 1 653 8
	ldr	r3, [sp, #308]
	adds	r1, r3, #4
	str	r1, [sp, #308]
	.loc 1 653 13
	ldr	r2, [r2]
	.loc 1 653 11
	str	r2, [r3]
	.loc 1 654 16
	ldr	r2, [sp, #304]
	adds	r3, r2, #4
	str	r3, [sp, #304]
	.loc 1 654 8
	ldr	r3, [sp, #308]
	adds	r1, r3, #4
	str	r1, [sp, #308]
	.loc 1 654 13
	ldr	r2, [r2]
	.loc 1 654 11
	str	r2, [r3]
	b	.L34
.L40:
	.loc 1 620 9
	nop
.L34:
	.loc 1 657 5
	add	r3, sp, #20
	mov	r0, r3
	bl	mbedtls_aes_free
	.loc 1 659 11
	ldr	r3, [sp, #300]
	.loc 1 660 1
	mov	r0, r3
	add	sp, sp, #324
.LCFI12:
	@ sp needed
	ldr	pc, [sp], #4
.L42:
	.align	2
.L41:
	.word	FSb
	.word	RT0
	.word	RT1
	.word	RT2
	.word	RT3
.LFE4:
	.size	mbedtls_aes_setkey_dec, .-mbedtls_aes_setkey_dec
	.section	.text.mbedtls_aes_encrypt,"ax",%progbits
	.align	1
	.global	mbedtls_aes_encrypt
	.syntax unified
	.thumb
	.thumb_func
	.fpu fpv4-sp-d16
	.type	mbedtls_aes_encrypt, %function
mbedtls_aes_encrypt:
.LFB5:
	.loc 1 716 1
	@ args = 0, pretend = 0, frame = 56
	@ frame_needed = 0, uses_anonymous_args = 0
	@ link register save eliminated.
	sub	sp, sp, #56
.LCFI13:
	str	r0, [sp, #12]
	str	r1, [sp, #8]
	str	r2, [sp, #4]
	.loc 1 720 8
	ldr	r3, [sp, #12]
	ldr	r3, [r3, #4]
	str	r3, [sp, #48]
	.loc 1 722 5
	ldr	r3, [sp, #8]
	ldrb	r3, [r3]	@ zero_extendqisi2
	mov	r2, r3
	ldr	r3, [sp, #8]
	adds	r3, r3, #1
	ldrb	r3, [r3]	@ zero_extendqisi2
	lsls	r3, r3, #8
	orrs	r2, r2, r3
	ldr	r3, [sp, #8]
	adds	r3, r3, #2
	ldrb	r3, [r3]	@ zero_extendqisi2
	lsls	r3, r3, #16
	orrs	r2, r2, r3
	ldr	r3, [sp, #8]
	adds	r3, r3, #3
	ldrb	r3, [r3]	@ zero_extendqisi2
	lsls	r3, r3, #24
	orrs	r3, r3, r2
	str	r3, [sp, #44]
	.loc 1 722 46
	ldr	r3, [sp, #48]
	adds	r2, r3, #4
	str	r2, [sp, #48]
	.loc 1 722 43
	ldr	r3, [r3]
	.loc 1 722 40
	ldr	r2, [sp, #44]
	eors	r3, r3, r2
	str	r3, [sp, #44]
	.loc 1 723 5
	ldr	r3, [sp, #8]
	adds	r3, r3, #4
	ldrb	r3, [r3]	@ zero_extendqisi2
	mov	r2, r3
	ldr	r3, [sp, #8]
	adds	r3, r3, #5
	ldrb	r3, [r3]	@ zero_extendqisi2
	lsls	r3, r3, #8
	orrs	r2, r2, r3
	ldr	r3, [sp, #8]
	adds	r3, r3, #6
	ldrb	r3, [r3]	@ zero_extendqisi2
	lsls	r3, r3, #16
	orrs	r2, r2, r3
	ldr	r3, [sp, #8]
	adds	r3, r3, #7
	ldrb	r3, [r3]	@ zero_extendqisi2
	lsls	r3, r3, #24
	orrs	r3, r3, r2
	str	r3, [sp, #40]
	.loc 1 723 46
	ldr	r3, [sp, #48]
	adds	r2, r3, #4
	str	r2, [sp, #48]
	.loc 1 723 43
	ldr	r3, [r3]
	.loc 1 723 40
	ldr	r2, [sp, #40]
	eors	r3, r3, r2
	str	r3, [sp, #40]
	.loc 1 724 5
	ldr	r3, [sp, #8]
	adds	r3, r3, #8
	ldrb	r3, [r3]	@ zero_extendqisi2
	mov	r2, r3
	ldr	r3, [sp, #8]
	adds	r3, r3, #9
	ldrb	r3, [r3]	@ zero_extendqisi2
	lsls	r3, r3, #8
	orrs	r2, r2, r3
	ldr	r3, [sp, #8]
	adds	r3, r3, #10
	ldrb	r3, [r3]	@ zero_extendqisi2
	lsls	r3, r3, #16
	orrs	r2, r2, r3
	ldr	r3, [sp, #8]
	adds	r3, r3, #11
	ldrb	r3, [r3]	@ zero_extendqisi2
	lsls	r3, r3, #24
	orrs	r3, r3, r2
	str	r3, [sp, #36]
	.loc 1 724 46
	ldr	r3, [sp, #48]
	adds	r2, r3, #4
	str	r2, [sp, #48]
	.loc 1 724 43
	ldr	r3, [r3]
	.loc 1 724 40
	ldr	r2, [sp, #36]
	eors	r3, r3, r2
	str	r3, [sp, #36]
	.loc 1 725 5
	ldr	r3, [sp, #8]
	adds	r3, r3, #12
	ldrb	r3, [r3]	@ zero_extendqisi2
	mov	r2, r3
	ldr	r3, [sp, #8]
	adds	r3, r3, #13
	ldrb	r3, [r3]	@ zero_extendqisi2
	lsls	r3, r3, #8
	orrs	r2, r2, r3
	ldr	r3, [sp, #8]
	adds	r3, r3, #14
	ldrb	r3, [r3]	@ zero_extendqisi2
	lsls	r3, r3, #16
	orrs	r2, r2, r3
	ldr	r3, [sp, #8]
	adds	r3, r3, #15
	ldrb	r3, [r3]	@ zero_extendqisi2
	lsls	r3, r3, #24
	orrs	r3, r3, r2
	str	r3, [sp, #32]
	.loc 1 725 46
	ldr	r3, [sp, #48]
	adds	r2, r3, #4
	str	r2, [sp, #48]
	.loc 1 725 43
	ldr	r3, [r3]
	.loc 1 725 40
	ldr	r2, [sp, #32]
	eors	r3, r3, r2
	str	r3, [sp, #32]
	.loc 1 727 19
	ldr	r3, [sp, #12]
	ldr	r3, [r3]
	.loc 1 727 24
	asrs	r3, r3, #1
	.loc 1 727 12
	subs	r3, r3, #1
	str	r3, [sp, #52]
	.loc 1 727 5
	b	.L44
.L45:
	.loc 1 729 9 discriminator 3
	ldr	r3, [sp, #48]
	adds	r2, r3, #4
	str	r2, [sp, #48]
	ldr	r2, [r3]
	ldr	r3, [sp, #44]
	uxtb	r3, r3
	ldr	r1, .L46
	ldr	r3, [r1, r3, lsl #2]
	eors	r2, r2, r3
	ldr	r3, [sp, #40]
	lsrs	r3, r3, #8
	uxtb	r3, r3
	ldr	r1, .L46+4
	ldr	r3, [r1, r3, lsl #2]
	eors	r2, r2, r3
	ldr	r3, [sp, #36]
	lsrs	r3, r3, #16
	uxtb	r3, r3
	ldr	r1, .L46+8
	ldr	r3, [r1, r3, lsl #2]
	eors	r2, r2, r3
	ldr	r3, [sp, #32]
	lsrs	r3, r3, #24
	ldr	r1, .L46+12
	ldr	r3, [r1, r3, lsl #2]
	eors	r3, r3, r2
	str	r3, [sp, #28]
	ldr	r3, [sp, #48]
	adds	r2, r3, #4
	str	r2, [sp, #48]
	ldr	r2, [r3]
	ldr	r3, [sp, #40]
	uxtb	r3, r3
	ldr	r1, .L46
	ldr	r3, [r1, r3, lsl #2]
	eors	r2, r2, r3
	ldr	r3, [sp, #36]
	lsrs	r3, r3, #8
	uxtb	r3, r3
	ldr	r1, .L46+4
	ldr	r3, [r1, r3, lsl #2]
	eors	r2, r2, r3
	ldr	r3, [sp, #32]
	lsrs	r3, r3, #16
	uxtb	r3, r3
	ldr	r1, .L46+8
	ldr	r3, [r1, r3, lsl #2]
	eors	r2, r2, r3
	ldr	r3, [sp, #44]
	lsrs	r3, r3, #24
	ldr	r1, .L46+12
	ldr	r3, [r1, r3, lsl #2]
	eors	r3, r3, r2
	str	r3, [sp, #24]
	ldr	r3, [sp, #48]
	adds	r2, r3, #4
	str	r2, [sp, #48]
	ldr	r2, [r3]
	ldr	r3, [sp, #36]
	uxtb	r3, r3
	ldr	r1, .L46
	ldr	r3, [r1, r3, lsl #2]
	eors	r2, r2, r3
	ldr	r3, [sp, #32]
	lsrs	r3, r3, #8
	uxtb	r3, r3
	ldr	r1, .L46+4
	ldr	r3, [r1, r3, lsl #2]
	eors	r2, r2, r3
	ldr	r3, [sp, #44]
	lsrs	r3, r3, #16
	uxtb	r3, r3
	ldr	r1, .L46+8
	ldr	r3, [r1, r3, lsl #2]
	eors	r2, r2, r3
	ldr	r3, [sp, #40]
	lsrs	r3, r3, #24
	ldr	r1, .L46+12
	ldr	r3, [r1, r3, lsl #2]
	eors	r3, r3, r2
	str	r3, [sp, #20]
	ldr	r3, [sp, #48]
	adds	r2, r3, #4
	str	r2, [sp, #48]
	ldr	r2, [r3]
	ldr	r3, [sp, #32]
	uxtb	r3, r3
	ldr	r1, .L46
	ldr	r3, [r1, r3, lsl #2]
	eors	r2, r2, r3
	ldr	r3, [sp, #44]
	lsrs	r3, r3, #8
	uxtb	r3, r3
	ldr	r1, .L46+4
	ldr	r3, [r1, r3, lsl #2]
	eors	r2, r2, r3
	ldr	r3, [sp, #40]
	lsrs	r3, r3, #16
	uxtb	r3, r3
	ldr	r1, .L46+8
	ldr	r3, [r1, r3, lsl #2]
	eors	r2, r2, r3
	ldr	r3, [sp, #36]
	lsrs	r3, r3, #24
	ldr	r1, .L46+12
	ldr	r3, [r1, r3, lsl #2]
	eors	r3, r3, r2
	str	r3, [sp, #16]
	.loc 1 730 9 discriminator 3
	ldr	r3, [sp, #48]
	adds	r2, r3, #4
	str	r2, [sp, #48]
	ldr	r2, [r3]
	ldr	r3, [sp, #28]
	uxtb	r3, r3
	ldr	r1, .L46
	ldr	r3, [r1, r3, lsl #2]
	eors	r2, r2, r3
	ldr	r3, [sp, #24]
	lsrs	r3, r3, #8
	uxtb	r3, r3
	ldr	r1, .L46+4
	ldr	r3, [r1, r3, lsl #2]
	eors	r2, r2, r3
	ldr	r3, [sp, #20]
	lsrs	r3, r3, #16
	uxtb	r3, r3
	ldr	r1, .L46+8
	ldr	r3, [r1, r3, lsl #2]
	eors	r2, r2, r3
	ldr	r3, [sp, #16]
	lsrs	r3, r3, #24
	ldr	r1, .L46+12
	ldr	r3, [r1, r3, lsl #2]
	eors	r3, r3, r2
	str	r3, [sp, #44]
	ldr	r3, [sp, #48]
	adds	r2, r3, #4
	str	r2, [sp, #48]
	ldr	r2, [r3]
	ldr	r3, [sp, #24]
	uxtb	r3, r3
	ldr	r1, .L46
	ldr	r3, [r1, r3, lsl #2]
	eors	r2, r2, r3
	ldr	r3, [sp, #20]
	lsrs	r3, r3, #8
	uxtb	r3, r3
	ldr	r1, .L46+4
	ldr	r3, [r1, r3, lsl #2]
	eors	r2, r2, r3
	ldr	r3, [sp, #16]
	lsrs	r3, r3, #16
	uxtb	r3, r3
	ldr	r1, .L46+8
	ldr	r3, [r1, r3, lsl #2]
	eors	r2, r2, r3
	ldr	r3, [sp, #28]
	lsrs	r3, r3, #24
	ldr	r1, .L46+12
	ldr	r3, [r1, r3, lsl #2]
	eors	r3, r3, r2
	str	r3, [sp, #40]
	ldr	r3, [sp, #48]
	adds	r2, r3, #4
	str	r2, [sp, #48]
	ldr	r2, [r3]
	ldr	r3, [sp, #20]
	uxtb	r3, r3
	ldr	r1, .L46
	ldr	r3, [r1, r3, lsl #2]
	eors	r2, r2, r3
	ldr	r3, [sp, #16]
	lsrs	r3, r3, #8
	uxtb	r3, r3
	ldr	r1, .L46+4
	ldr	r3, [r1, r3, lsl #2]
	eors	r2, r2, r3
	ldr	r3, [sp, #28]
	lsrs	r3, r3, #16
	uxtb	r3, r3
	ldr	r1, .L46+8
	ldr	r3, [r1, r3, lsl #2]
	eors	r2, r2, r3
	ldr	r3, [sp, #24]
	lsrs	r3, r3, #24
	ldr	r1, .L46+12
	ldr	r3, [r1, r3, lsl #2]
	eors	r3, r3, r2
	str	r3, [sp, #36]
	ldr	r3, [sp, #48]
	adds	r2, r3, #4
	str	r2, [sp, #48]
	ldr	r2, [r3]
	ldr	r3, [sp, #16]
	uxtb	r3, r3
	ldr	r1, .L46
	ldr	r3, [r1, r3, lsl #2]
	eors	r2, r2, r3
	ldr	r3, [sp, #28]
	lsrs	r3, r3, #8
	uxtb	r3, r3
	ldr	r1, .L46+4
	ldr	r3, [r1, r3, lsl #2]
	eors	r2, r2, r3
	ldr	r3, [sp, #24]
	lsrs	r3, r3, #16
	uxtb	r3, r3
	ldr	r1, .L46+8
	ldr	r3, [r1, r3, lsl #2]
	eors	r2, r2, r3
	ldr	r3, [sp, #20]
	lsrs	r3, r3, #24
	ldr	r1, .L46+12
	ldr	r3, [r1, r3, lsl #2]
	eors	r3, r3, r2
	str	r3, [sp, #32]
	.loc 1 727 44 discriminator 3
	ldr	r3, [sp, #52]
	subs	r3, r3, #1
	str	r3, [sp, #52]
.L44:
	.loc 1 727 5 discriminator 1
	ldr	r3, [sp, #52]
	cmp	r3, #0
	bgt	.L45
	.loc 1 733 5
	ldr	r3, [sp, #48]
	adds	r2, r3, #4
	str	r2, [sp, #48]
	ldr	r2, [r3]
	ldr	r3, [sp, #44]
	uxtb	r3, r3
	ldr	r1, .L46
	ldr	r3, [r1, r3, lsl #2]
	eors	r2, r2, r3
	ldr	r3, [sp, #40]
	lsrs	r3, r3, #8
	uxtb	r3, r3
	ldr	r1, .L46+4
	ldr	r3, [r1, r3, lsl #2]
	eors	r2, r2, r3
	ldr	r3, [sp, #36]
	lsrs	r3, r3, #16
	uxtb	r3, r3
	ldr	r1, .L46+8
	ldr	r3, [r1, r3, lsl #2]
	eors	r2, r2, r3
	ldr	r3, [sp, #32]
	lsrs	r3, r3, #24
	ldr	r1, .L46+12
	ldr	r3, [r1, r3, lsl #2]
	eors	r3, r3, r2
	str	r3, [sp, #28]
	ldr	r3, [sp, #48]
	adds	r2, r3, #4
	str	r2, [sp, #48]
	ldr	r2, [r3]
	ldr	r3, [sp, #40]
	uxtb	r3, r3
	ldr	r1, .L46
	ldr	r3, [r1, r3, lsl #2]
	eors	r2, r2, r3
	ldr	r3, [sp, #36]
	lsrs	r3, r3, #8
	uxtb	r3, r3
	ldr	r1, .L46+4
	ldr	r3, [r1, r3, lsl #2]
	eors	r2, r2, r3
	ldr	r3, [sp, #32]
	lsrs	r3, r3, #16
	uxtb	r3, r3
	ldr	r1, .L46+8
	ldr	r3, [r1, r3, lsl #2]
	eors	r2, r2, r3
	ldr	r3, [sp, #44]
	lsrs	r3, r3, #24
	ldr	r1, .L46+12
	ldr	r3, [r1, r3, lsl #2]
	eors	r3, r3, r2
	str	r3, [sp, #24]
	ldr	r3, [sp, #48]
	adds	r2, r3, #4
	str	r2, [sp, #48]
	ldr	r2, [r3]
	ldr	r3, [sp, #36]
	uxtb	r3, r3
	ldr	r1, .L46
	ldr	r3, [r1, r3, lsl #2]
	eors	r2, r2, r3
	ldr	r3, [sp, #32]
	lsrs	r3, r3, #8
	uxtb	r3, r3
	ldr	r1, .L46+4
	ldr	r3, [r1, r3, lsl #2]
	eors	r2, r2, r3
	ldr	r3, [sp, #44]
	lsrs	r3, r3, #16
	uxtb	r3, r3
	ldr	r1, .L46+8
	ldr	r3, [r1, r3, lsl #2]
	eors	r2, r2, r3
	ldr	r3, [sp, #40]
	lsrs	r3, r3, #24
	ldr	r1, .L46+12
	ldr	r3, [r1, r3, lsl #2]
	eors	r3, r3, r2
	str	r3, [sp, #20]
	ldr	r3, [sp, #48]
	b	.L47
.L48:
	.align	2
.L46:
	.word	FT0
	.word	FT1
	.word	FT2
	.word	FT3
.L47:
	adds	r2, r3, #4
	str	r2, [sp, #48]
	ldr	r2, [r3]
	ldr	r3, [sp, #32]
	uxtb	r3, r3
	ldr	r1, .L49
	ldr	r3, [r1, r3, lsl #2]
	eors	r2, r2, r3
	ldr	r3, [sp, #44]
	lsrs	r3, r3, #8
	uxtb	r3, r3
	ldr	r1, .L49+4
	ldr	r3, [r1, r3, lsl #2]
	eors	r2, r2, r3
	ldr	r3, [sp, #40]
	lsrs	r3, r3, #16
	uxtb	r3, r3
	ldr	r1, .L49+8
	ldr	r3, [r1, r3, lsl #2]
	eors	r2, r2, r3
	ldr	r3, [sp, #36]
	lsrs	r3, r3, #24
	ldr	r1, .L49+12
	ldr	r3, [r1, r3, lsl #2]
	eors	r3, r3, r2
	str	r3, [sp, #16]
	.loc 1 735 13
	ldr	r3, [sp, #48]
	adds	r2, r3, #4
	str	r2, [sp, #48]
	.loc 1 735 10
	ldr	r3, [r3]
	.loc 1 736 44
	ldr	r2, [sp, #28]
	uxtb	r2, r2
	.loc 1 736 29
	ldr	r1, .L49+16
	ldrb	r2, [r1, r2]	@ zero_extendqisi2
	.loc 1 735 16
	eors	r2, r2, r3
	.loc 1 737 36
	ldr	r3, [sp, #24]
	lsrs	r3, r3, #8
	.loc 1 737 44
	uxtb	r3, r3
	.loc 1 737 29
	ldr	r1, .L49+16
	ldrb	r3, [r1, r3]	@ zero_extendqisi2
	.loc 1 737 53
	lsls	r3, r3, #8
	.loc 1 736 61
	eors	r2, r2, r3
	.loc 1 738 36
	ldr	r3, [sp, #20]
	lsrs	r3, r3, #16
	.loc 1 738 44
	uxtb	r3, r3
	.loc 1 738 29
	ldr	r1, .L49+16
	ldrb	r3, [r1, r3]	@ zero_extendqisi2
	.loc 1 738 53
	lsls	r3, r3, #16
	.loc 1 737 61
	eors	r2, r2, r3
	.loc 1 739 44
	ldr	r3, [sp, #16]
	lsrs	r3, r3, #24
	.loc 1 739 29
	ldr	r1, .L49+16
	ldrb	r3, [r1, r3]	@ zero_extendqisi2
	.loc 1 739 53
	lsls	r3, r3, #24
	.loc 1 735 8
	eors	r3, r3, r2
	str	r3, [sp, #44]
	.loc 1 741 13
	ldr	r3, [sp, #48]
	adds	r2, r3, #4
	str	r2, [sp, #48]
	.loc 1 741 10
	ldr	r3, [r3]
	.loc 1 742 44
	ldr	r2, [sp, #24]
	uxtb	r2, r2
	.loc 1 742 29
	ldr	r1, .L49+16
	ldrb	r2, [r1, r2]	@ zero_extendqisi2
	.loc 1 741 16
	eors	r2, r2, r3
	.loc 1 743 36
	ldr	r3, [sp, #20]
	lsrs	r3, r3, #8
	.loc 1 743 44
	uxtb	r3, r3
	.loc 1 743 29
	ldr	r1, .L49+16
	ldrb	r3, [r1, r3]	@ zero_extendqisi2
	.loc 1 743 53
	lsls	r3, r3, #8
	.loc 1 742 61
	eors	r2, r2, r3
	.loc 1 744 36
	ldr	r3, [sp, #16]
	lsrs	r3, r3, #16
	.loc 1 744 44
	uxtb	r3, r3
	.loc 1 744 29
	ldr	r1, .L49+16
	ldrb	r3, [r1, r3]	@ zero_extendqisi2
	.loc 1 744 53
	lsls	r3, r3, #16
	.loc 1 743 61
	eors	r2, r2, r3
	.loc 1 745 44
	ldr	r3, [sp, #28]
	lsrs	r3, r3, #24
	.loc 1 745 29
	ldr	r1, .L49+16
	ldrb	r3, [r1, r3]	@ zero_extendqisi2
	.loc 1 745 53
	lsls	r3, r3, #24
	.loc 1 741 8
	eors	r3, r3, r2
	str	r3, [sp, #40]
	.loc 1 747 13
	ldr	r3, [sp, #48]
	adds	r2, r3, #4
	str	r2, [sp, #48]
	.loc 1 747 10
	ldr	r3, [r3]
	.loc 1 748 44
	ldr	r2, [sp, #20]
	uxtb	r2, r2
	.loc 1 748 29
	ldr	r1, .L49+16
	ldrb	r2, [r1, r2]	@ zero_extendqisi2
	.loc 1 747 16
	eors	r2, r2, r3
	.loc 1 749 36
	ldr	r3, [sp, #16]
	lsrs	r3, r3, #8
	.loc 1 749 44
	uxtb	r3, r3
	.loc 1 749 29
	ldr	r1, .L49+16
	ldrb	r3, [r1, r3]	@ zero_extendqisi2
	.loc 1 749 53
	lsls	r3, r3, #8
	.loc 1 748 61
	eors	r2, r2, r3
	.loc 1 750 36
	ldr	r3, [sp, #28]
	lsrs	r3, r3, #16
	.loc 1 750 44
	uxtb	r3, r3
	.loc 1 750 29
	ldr	r1, .L49+16
	ldrb	r3, [r1, r3]	@ zero_extendqisi2
	.loc 1 750 53
	lsls	r3, r3, #16
	.loc 1 749 61
	eors	r2, r2, r3
	.loc 1 751 44
	ldr	r3, [sp, #24]
	lsrs	r3, r3, #24
	.loc 1 751 29
	ldr	r1, .L49+16
	ldrb	r3, [r1, r3]	@ zero_extendqisi2
	.loc 1 751 53
	lsls	r3, r3, #24
	.loc 1 747 8
	eors	r3, r3, r2
	str	r3, [sp, #36]
	.loc 1 753 13
	ldr	r3, [sp, #48]
	adds	r2, r3, #4
	str	r2, [sp, #48]
	.loc 1 753 10
	ldr	r3, [r3]
	.loc 1 754 44
	ldr	r2, [sp, #16]
	uxtb	r2, r2
	.loc 1 754 29
	ldr	r1, .L49+16
	ldrb	r2, [r1, r2]	@ zero_extendqisi2
	.loc 1 753 16
	eors	r2, r2, r3
	.loc 1 755 36
	ldr	r3, [sp, #28]
	lsrs	r3, r3, #8
	.loc 1 755 44
	uxtb	r3, r3
	.loc 1 755 29
	ldr	r1, .L49+16
	ldrb	r3, [r1, r3]	@ zero_extendqisi2
	.loc 1 755 53
	lsls	r3, r3, #8
	.loc 1 754 61
	eors	r2, r2, r3
	.loc 1 756 36
	ldr	r3, [sp, #24]
	lsrs	r3, r3, #16
	.loc 1 756 44
	uxtb	r3, r3
	.loc 1 756 29
	ldr	r1, .L49+16
	ldrb	r3, [r1, r3]	@ zero_extendqisi2
	.loc 1 756 53
	lsls	r3, r3, #16
	.loc 1 755 61
	eors	r2, r2, r3
	.loc 1 757 44
	ldr	r3, [sp, #20]
	lsrs	r3, r3, #24
	.loc 1 757 29
	ldr	r1, .L49+16
	ldrb	r3, [r1, r3]	@ zero_extendqisi2
	.loc 1 757 53
	lsls	r3, r3, #24
	.loc 1 753 8
	eors	r3, r3, r2
	str	r3, [sp, #32]
	.loc 1 759 5
	ldr	r3, [sp, #44]
	uxtb	r2, r3
	ldr	r3, [sp, #4]
	strb	r2, [r3]
	ldr	r3, [sp, #44]
	lsrs	r2, r3, #8
	ldr	r3, [sp, #4]
	adds	r3, r3, #1
	uxtb	r2, r2
	strb	r2, [r3]
	ldr	r3, [sp, #44]
	lsrs	r2, r3, #16
	ldr	r3, [sp, #4]
	adds	r3, r3, #2
	uxtb	r2, r2
	strb	r2, [r3]
	ldr	r3, [sp, #44]
	lsrs	r2, r3, #24
	ldr	r3, [sp, #4]
	adds	r3, r3, #3
	uxtb	r2, r2
	strb	r2, [r3]
	.loc 1 760 5
	ldr	r3, [sp, #4]
	adds	r3, r3, #4
	ldr	r2, [sp, #40]
	uxtb	r2, r2
	strb	r2, [r3]
	ldr	r3, [sp, #40]
	lsrs	r2, r3, #8
	ldr	r3, [sp, #4]
	adds	r3, r3, #5
	uxtb	r2, r2
	strb	r2, [r3]
	ldr	r3, [sp, #40]
	lsrs	r2, r3, #16
	ldr	r3, [sp, #4]
	adds	r3, r3, #6
	uxtb	r2, r2
	strb	r2, [r3]
	ldr	r3, [sp, #40]
	lsrs	r2, r3, #24
	ldr	r3, [sp, #4]
	adds	r3, r3, #7
	uxtb	r2, r2
	strb	r2, [r3]
	.loc 1 761 5
	ldr	r3, [sp, #4]
	adds	r3, r3, #8
	ldr	r2, [sp, #36]
	uxtb	r2, r2
	strb	r2, [r3]
	ldr	r3, [sp, #36]
	lsrs	r2, r3, #8
	ldr	r3, [sp, #4]
	adds	r3, r3, #9
	uxtb	r2, r2
	strb	r2, [r3]
	ldr	r3, [sp, #36]
	lsrs	r2, r3, #16
	ldr	r3, [sp, #4]
	adds	r3, r3, #10
	uxtb	r2, r2
	strb	r2, [r3]
	ldr	r3, [sp, #36]
	lsrs	r2, r3, #24
	ldr	r3, [sp, #4]
	adds	r3, r3, #11
	uxtb	r2, r2
	strb	r2, [r3]
	.loc 1 762 5
	ldr	r3, [sp, #4]
	adds	r3, r3, #12
	ldr	r2, [sp, #32]
	uxtb	r2, r2
	strb	r2, [r3]
	ldr	r3, [sp, #32]
	lsrs	r2, r3, #8
	ldr	r3, [sp, #4]
	adds	r3, r3, #13
	uxtb	r2, r2
	strb	r2, [r3]
	ldr	r3, [sp, #32]
	lsrs	r2, r3, #16
	ldr	r3, [sp, #4]
	adds	r3, r3, #14
	uxtb	r2, r2
	strb	r2, [r3]
	ldr	r3, [sp, #32]
	lsrs	r2, r3, #24
	ldr	r3, [sp, #4]
	adds	r3, r3, #15
	uxtb	r2, r2
	strb	r2, [r3]
	.loc 1 763 1
	nop
	add	sp, sp, #56
.LCFI14:
	@ sp needed
	bx	lr
.L50:
	.align	2
.L49:
	.word	FT0
	.word	FT1
	.word	FT2
	.word	FT3
	.word	FSb
.LFE5:
	.size	mbedtls_aes_encrypt, .-mbedtls_aes_encrypt
	.section	.text.mbedtls_aes_decrypt,"ax",%progbits
	.align	1
	.global	mbedtls_aes_decrypt
	.syntax unified
	.thumb
	.thumb_func
	.fpu fpv4-sp-d16
	.type	mbedtls_aes_decrypt, %function
mbedtls_aes_decrypt:
.LFB6:
	.loc 1 773 1
	@ args = 0, pretend = 0, frame = 56
	@ frame_needed = 0, uses_anonymous_args = 0
	@ link register save eliminated.
	sub	sp, sp, #56
.LCFI15:
	str	r0, [sp, #12]
	str	r1, [sp, #8]
	str	r2, [sp, #4]
	.loc 1 777 8
	ldr	r3, [sp, #12]
	ldr	r3, [r3, #4]
	str	r3, [sp, #48]
	.loc 1 779 5
	ldr	r3, [sp, #8]
	ldrb	r3, [r3]	@ zero_extendqisi2
	mov	r2, r3
	ldr	r3, [sp, #8]
	adds	r3, r3, #1
	ldrb	r3, [r3]	@ zero_extendqisi2
	lsls	r3, r3, #8
	orrs	r2, r2, r3
	ldr	r3, [sp, #8]
	adds	r3, r3, #2
	ldrb	r3, [r3]	@ zero_extendqisi2
	lsls	r3, r3, #16
	orrs	r2, r2, r3
	ldr	r3, [sp, #8]
	adds	r3, r3, #3
	ldrb	r3, [r3]	@ zero_extendqisi2
	lsls	r3, r3, #24
	orrs	r3, r3, r2
	str	r3, [sp, #44]
	.loc 1 779 46
	ldr	r3, [sp, #48]
	adds	r2, r3, #4
	str	r2, [sp, #48]
	.loc 1 779 43
	ldr	r3, [r3]
	.loc 1 779 40
	ldr	r2, [sp, #44]
	eors	r3, r3, r2
	str	r3, [sp, #44]
	.loc 1 780 5
	ldr	r3, [sp, #8]
	adds	r3, r3, #4
	ldrb	r3, [r3]	@ zero_extendqisi2
	mov	r2, r3
	ldr	r3, [sp, #8]
	adds	r3, r3, #5
	ldrb	r3, [r3]	@ zero_extendqisi2
	lsls	r3, r3, #8
	orrs	r2, r2, r3
	ldr	r3, [sp, #8]
	adds	r3, r3, #6
	ldrb	r3, [r3]	@ zero_extendqisi2
	lsls	r3, r3, #16
	orrs	r2, r2, r3
	ldr	r3, [sp, #8]
	adds	r3, r3, #7
	ldrb	r3, [r3]	@ zero_extendqisi2
	lsls	r3, r3, #24
	orrs	r3, r3, r2
	str	r3, [sp, #40]
	.loc 1 780 46
	ldr	r3, [sp, #48]
	adds	r2, r3, #4
	str	r2, [sp, #48]
	.loc 1 780 43
	ldr	r3, [r3]
	.loc 1 780 40
	ldr	r2, [sp, #40]
	eors	r3, r3, r2
	str	r3, [sp, #40]
	.loc 1 781 5
	ldr	r3, [sp, #8]
	adds	r3, r3, #8
	ldrb	r3, [r3]	@ zero_extendqisi2
	mov	r2, r3
	ldr	r3, [sp, #8]
	adds	r3, r3, #9
	ldrb	r3, [r3]	@ zero_extendqisi2
	lsls	r3, r3, #8
	orrs	r2, r2, r3
	ldr	r3, [sp, #8]
	adds	r3, r3, #10
	ldrb	r3, [r3]	@ zero_extendqisi2
	lsls	r3, r3, #16
	orrs	r2, r2, r3
	ldr	r3, [sp, #8]
	adds	r3, r3, #11
	ldrb	r3, [r3]	@ zero_extendqisi2
	lsls	r3, r3, #24
	orrs	r3, r3, r2
	str	r3, [sp, #36]
	.loc 1 781 46
	ldr	r3, [sp, #48]
	adds	r2, r3, #4
	str	r2, [sp, #48]
	.loc 1 781 43
	ldr	r3, [r3]
	.loc 1 781 40
	ldr	r2, [sp, #36]
	eors	r3, r3, r2
	str	r3, [sp, #36]
	.loc 1 782 5
	ldr	r3, [sp, #8]
	adds	r3, r3, #12
	ldrb	r3, [r3]	@ zero_extendqisi2
	mov	r2, r3
	ldr	r3, [sp, #8]
	adds	r3, r3, #13
	ldrb	r3, [r3]	@ zero_extendqisi2
	lsls	r3, r3, #8
	orrs	r2, r2, r3
	ldr	r3, [sp, #8]
	adds	r3, r3, #14
	ldrb	r3, [r3]	@ zero_extendqisi2
	lsls	r3, r3, #16
	orrs	r2, r2, r3
	ldr	r3, [sp, #8]
	adds	r3, r3, #15
	ldrb	r3, [r3]	@ zero_extendqisi2
	lsls	r3, r3, #24
	orrs	r3, r3, r2
	str	r3, [sp, #32]
	.loc 1 782 46
	ldr	r3, [sp, #48]
	adds	r2, r3, #4
	str	r2, [sp, #48]
	.loc 1 782 43
	ldr	r3, [r3]
	.loc 1 782 40
	ldr	r2, [sp, #32]
	eors	r3, r3, r2
	str	r3, [sp, #32]
	.loc 1 784 19
	ldr	r3, [sp, #12]
	ldr	r3, [r3]
	.loc 1 784 24
	asrs	r3, r3, #1
	.loc 1 784 12
	subs	r3, r3, #1
	str	r3, [sp, #52]
	.loc 1 784 5
	b	.L52
.L53:
	.loc 1 786 9 discriminator 3
	ldr	r3, [sp, #48]
	adds	r2, r3, #4
	str	r2, [sp, #48]
	ldr	r2, [r3]
	ldr	r3, [sp, #44]
	uxtb	r3, r3
	ldr	r1, .L54
	ldr	r3, [r1, r3, lsl #2]
	eors	r2, r2, r3
	ldr	r3, [sp, #32]
	lsrs	r3, r3, #8
	uxtb	r3, r3
	ldr	r1, .L54+4
	ldr	r3, [r1, r3, lsl #2]
	eors	r2, r2, r3
	ldr	r3, [sp, #36]
	lsrs	r3, r3, #16
	uxtb	r3, r3
	ldr	r1, .L54+8
	ldr	r3, [r1, r3, lsl #2]
	eors	r2, r2, r3
	ldr	r3, [sp, #40]
	lsrs	r3, r3, #24
	ldr	r1, .L54+12
	ldr	r3, [r1, r3, lsl #2]
	eors	r3, r3, r2
	str	r3, [sp, #28]
	ldr	r3, [sp, #48]
	adds	r2, r3, #4
	str	r2, [sp, #48]
	ldr	r2, [r3]
	ldr	r3, [sp, #40]
	uxtb	r3, r3
	ldr	r1, .L54
	ldr	r3, [r1, r3, lsl #2]
	eors	r2, r2, r3
	ldr	r3, [sp, #44]
	lsrs	r3, r3, #8
	uxtb	r3, r3
	ldr	r1, .L54+4
	ldr	r3, [r1, r3, lsl #2]
	eors	r2, r2, r3
	ldr	r3, [sp, #32]
	lsrs	r3, r3, #16
	uxtb	r3, r3
	ldr	r1, .L54+8
	ldr	r3, [r1, r3, lsl #2]
	eors	r2, r2, r3
	ldr	r3, [sp, #36]
	lsrs	r3, r3, #24
	ldr	r1, .L54+12
	ldr	r3, [r1, r3, lsl #2]
	eors	r3, r3, r2
	str	r3, [sp, #24]
	ldr	r3, [sp, #48]
	adds	r2, r3, #4
	str	r2, [sp, #48]
	ldr	r2, [r3]
	ldr	r3, [sp, #36]
	uxtb	r3, r3
	ldr	r1, .L54
	ldr	r3, [r1, r3, lsl #2]
	eors	r2, r2, r3
	ldr	r3, [sp, #40]
	lsrs	r3, r3, #8
	uxtb	r3, r3
	ldr	r1, .L54+4
	ldr	r3, [r1, r3, lsl #2]
	eors	r2, r2, r3
	ldr	r3, [sp, #44]
	lsrs	r3, r3, #16
	uxtb	r3, r3
	ldr	r1, .L54+8
	ldr	r3, [r1, r3, lsl #2]
	eors	r2, r2, r3
	ldr	r3, [sp, #32]
	lsrs	r3, r3, #24
	ldr	r1, .L54+12
	ldr	r3, [r1, r3, lsl #2]
	eors	r3, r3, r2
	str	r3, [sp, #20]
	ldr	r3, [sp, #48]
	adds	r2, r3, #4
	str	r2, [sp, #48]
	ldr	r2, [r3]
	ldr	r3, [sp, #32]
	uxtb	r3, r3
	ldr	r1, .L54
	ldr	r3, [r1, r3, lsl #2]
	eors	r2, r2, r3
	ldr	r3, [sp, #36]
	lsrs	r3, r3, #8
	uxtb	r3, r3
	ldr	r1, .L54+4
	ldr	r3, [r1, r3, lsl #2]
	eors	r2, r2, r3
	ldr	r3, [sp, #40]
	lsrs	r3, r3, #16
	uxtb	r3, r3
	ldr	r1, .L54+8
	ldr	r3, [r1, r3, lsl #2]
	eors	r2, r2, r3
	ldr	r3, [sp, #44]
	lsrs	r3, r3, #24
	ldr	r1, .L54+12
	ldr	r3, [r1, r3, lsl #2]
	eors	r3, r3, r2
	str	r3, [sp, #16]
	.loc 1 787 9 discriminator 3
	ldr	r3, [sp, #48]
	adds	r2, r3, #4
	str	r2, [sp, #48]
	ldr	r2, [r3]
	ldr	r3, [sp, #28]
	uxtb	r3, r3
	ldr	r1, .L54
	ldr	r3, [r1, r3, lsl #2]
	eors	r2, r2, r3
	ldr	r3, [sp, #16]
	lsrs	r3, r3, #8
	uxtb	r3, r3
	ldr	r1, .L54+4
	ldr	r3, [r1, r3, lsl #2]
	eors	r2, r2, r3
	ldr	r3, [sp, #20]
	lsrs	r3, r3, #16
	uxtb	r3, r3
	ldr	r1, .L54+8
	ldr	r3, [r1, r3, lsl #2]
	eors	r2, r2, r3
	ldr	r3, [sp, #24]
	lsrs	r3, r3, #24
	ldr	r1, .L54+12
	ldr	r3, [r1, r3, lsl #2]
	eors	r3, r3, r2
	str	r3, [sp, #44]
	ldr	r3, [sp, #48]
	adds	r2, r3, #4
	str	r2, [sp, #48]
	ldr	r2, [r3]
	ldr	r3, [sp, #24]
	uxtb	r3, r3
	ldr	r1, .L54
	ldr	r3, [r1, r3, lsl #2]
	eors	r2, r2, r3
	ldr	r3, [sp, #28]
	lsrs	r3, r3, #8
	uxtb	r3, r3
	ldr	r1, .L54+4
	ldr	r3, [r1, r3, lsl #2]
	eors	r2, r2, r3
	ldr	r3, [sp, #16]
	lsrs	r3, r3, #16
	uxtb	r3, r3
	ldr	r1, .L54+8
	ldr	r3, [r1, r3, lsl #2]
	eors	r2, r2, r3
	ldr	r3, [sp, #20]
	lsrs	r3, r3, #24
	ldr	r1, .L54+12
	ldr	r3, [r1, r3, lsl #2]
	eors	r3, r3, r2
	str	r3, [sp, #40]
	ldr	r3, [sp, #48]
	adds	r2, r3, #4
	str	r2, [sp, #48]
	ldr	r2, [r3]
	ldr	r3, [sp, #20]
	uxtb	r3, r3
	ldr	r1, .L54
	ldr	r3, [r1, r3, lsl #2]
	eors	r2, r2, r3
	ldr	r3, [sp, #24]
	lsrs	r3, r3, #8
	uxtb	r3, r3
	ldr	r1, .L54+4
	ldr	r3, [r1, r3, lsl #2]
	eors	r2, r2, r3
	ldr	r3, [sp, #28]
	lsrs	r3, r3, #16
	uxtb	r3, r3
	ldr	r1, .L54+8
	ldr	r3, [r1, r3, lsl #2]
	eors	r2, r2, r3
	ldr	r3, [sp, #16]
	lsrs	r3, r3, #24
	ldr	r1, .L54+12
	ldr	r3, [r1, r3, lsl #2]
	eors	r3, r3, r2
	str	r3, [sp, #36]
	ldr	r3, [sp, #48]
	adds	r2, r3, #4
	str	r2, [sp, #48]
	ldr	r2, [r3]
	ldr	r3, [sp, #16]
	uxtb	r3, r3
	ldr	r1, .L54
	ldr	r3, [r1, r3, lsl #2]
	eors	r2, r2, r3
	ldr	r3, [sp, #20]
	lsrs	r3, r3, #8
	uxtb	r3, r3
	ldr	r1, .L54+4
	ldr	r3, [r1, r3, lsl #2]
	eors	r2, r2, r3
	ldr	r3, [sp, #24]
	lsrs	r3, r3, #16
	uxtb	r3, r3
	ldr	r1, .L54+8
	ldr	r3, [r1, r3, lsl #2]
	eors	r2, r2, r3
	ldr	r3, [sp, #28]
	lsrs	r3, r3, #24
	ldr	r1, .L54+12
	ldr	r3, [r1, r3, lsl #2]
	eors	r3, r3, r2
	str	r3, [sp, #32]
	.loc 1 784 44 discriminator 3
	ldr	r3, [sp, #52]
	subs	r3, r3, #1
	str	r3, [sp, #52]
.L52:
	.loc 1 784 5 discriminator 1
	ldr	r3, [sp, #52]
	cmp	r3, #0
	bgt	.L53
	.loc 1 790 5
	ldr	r3, [sp, #48]
	adds	r2, r3, #4
	str	r2, [sp, #48]
	ldr	r2, [r3]
	ldr	r3, [sp, #44]
	uxtb	r3, r3
	ldr	r1, .L54
	ldr	r3, [r1, r3, lsl #2]
	eors	r2, r2, r3
	ldr	r3, [sp, #32]
	lsrs	r3, r3, #8
	uxtb	r3, r3
	ldr	r1, .L54+4
	ldr	r3, [r1, r3, lsl #2]
	eors	r2, r2, r3
	ldr	r3, [sp, #36]
	lsrs	r3, r3, #16
	uxtb	r3, r3
	ldr	r1, .L54+8
	ldr	r3, [r1, r3, lsl #2]
	eors	r2, r2, r3
	ldr	r3, [sp, #40]
	lsrs	r3, r3, #24
	ldr	r1, .L54+12
	ldr	r3, [r1, r3, lsl #2]
	eors	r3, r3, r2
	str	r3, [sp, #28]
	ldr	r3, [sp, #48]
	adds	r2, r3, #4
	str	r2, [sp, #48]
	ldr	r2, [r3]
	ldr	r3, [sp, #40]
	uxtb	r3, r3
	ldr	r1, .L54
	ldr	r3, [r1, r3, lsl #2]
	eors	r2, r2, r3
	ldr	r3, [sp, #44]
	lsrs	r3, r3, #8
	uxtb	r3, r3
	ldr	r1, .L54+4
	ldr	r3, [r1, r3, lsl #2]
	eors	r2, r2, r3
	ldr	r3, [sp, #32]
	lsrs	r3, r3, #16
	uxtb	r3, r3
	ldr	r1, .L54+8
	ldr	r3, [r1, r3, lsl #2]
	eors	r2, r2, r3
	ldr	r3, [sp, #36]
	lsrs	r3, r3, #24
	ldr	r1, .L54+12
	ldr	r3, [r1, r3, lsl #2]
	eors	r3, r3, r2
	str	r3, [sp, #24]
	ldr	r3, [sp, #48]
	adds	r2, r3, #4
	str	r2, [sp, #48]
	ldr	r2, [r3]
	ldr	r3, [sp, #36]
	uxtb	r3, r3
	ldr	r1, .L54
	ldr	r3, [r1, r3, lsl #2]
	eors	r2, r2, r3
	ldr	r3, [sp, #40]
	lsrs	r3, r3, #8
	uxtb	r3, r3
	ldr	r1, .L54+4
	ldr	r3, [r1, r3, lsl #2]
	eors	r2, r2, r3
	ldr	r3, [sp, #44]
	lsrs	r3, r3, #16
	uxtb	r3, r3
	ldr	r1, .L54+8
	ldr	r3, [r1, r3, lsl #2]
	eors	r2, r2, r3
	ldr	r3, [sp, #32]
	lsrs	r3, r3, #24
	ldr	r1, .L54+12
	ldr	r3, [r1, r3, lsl #2]
	eors	r3, r3, r2
	str	r3, [sp, #20]
	ldr	r3, [sp, #48]
	b	.L55
.L56:
	.align	2
.L54:
	.word	RT0
	.word	RT1
	.word	RT2
	.word	RT3
.L55:
	adds	r2, r3, #4
	str	r2, [sp, #48]
	ldr	r2, [r3]
	ldr	r3, [sp, #32]
	uxtb	r3, r3
	ldr	r1, .L57
	ldr	r3, [r1, r3, lsl #2]
	eors	r2, r2, r3
	ldr	r3, [sp, #36]
	lsrs	r3, r3, #8
	uxtb	r3, r3
	ldr	r1, .L57+4
	ldr	r3, [r1, r3, lsl #2]
	eors	r2, r2, r3
	ldr	r3, [sp, #40]
	lsrs	r3, r3, #16
	uxtb	r3, r3
	ldr	r1, .L57+8
	ldr	r3, [r1, r3, lsl #2]
	eors	r2, r2, r3
	ldr	r3, [sp, #44]
	lsrs	r3, r3, #24
	ldr	r1, .L57+12
	ldr	r3, [r1, r3, lsl #2]
	eors	r3, r3, r2
	str	r3, [sp, #16]
	.loc 1 792 13
	ldr	r3, [sp, #48]
	adds	r2, r3, #4
	str	r2, [sp, #48]
	.loc 1 792 10
	ldr	r3, [r3]
	.loc 1 793 44
	ldr	r2, [sp, #28]
	uxtb	r2, r2
	.loc 1 793 29
	ldr	r1, .L57+16
	ldrb	r2, [r1, r2]	@ zero_extendqisi2
	.loc 1 792 16
	eors	r2, r2, r3
	.loc 1 794 36
	ldr	r3, [sp, #16]
	lsrs	r3, r3, #8
	.loc 1 794 44
	uxtb	r3, r3
	.loc 1 794 29
	ldr	r1, .L57+16
	ldrb	r3, [r1, r3]	@ zero_extendqisi2
	.loc 1 794 53
	lsls	r3, r3, #8
	.loc 1 793 61
	eors	r2, r2, r3
	.loc 1 795 36
	ldr	r3, [sp, #20]
	lsrs	r3, r3, #16
	.loc 1 795 44
	uxtb	r3, r3
	.loc 1 795 29
	ldr	r1, .L57+16
	ldrb	r3, [r1, r3]	@ zero_extendqisi2
	.loc 1 795 53
	lsls	r3, r3, #16
	.loc 1 794 61
	eors	r2, r2, r3
	.loc 1 796 44
	ldr	r3, [sp, #24]
	lsrs	r3, r3, #24
	.loc 1 796 29
	ldr	r1, .L57+16
	ldrb	r3, [r1, r3]	@ zero_extendqisi2
	.loc 1 796 53
	lsls	r3, r3, #24
	.loc 1 792 8
	eors	r3, r3, r2
	str	r3, [sp, #44]
	.loc 1 798 13
	ldr	r3, [sp, #48]
	adds	r2, r3, #4
	str	r2, [sp, #48]
	.loc 1 798 10
	ldr	r3, [r3]
	.loc 1 799 44
	ldr	r2, [sp, #24]
	uxtb	r2, r2
	.loc 1 799 29
	ldr	r1, .L57+16
	ldrb	r2, [r1, r2]	@ zero_extendqisi2
	.loc 1 798 16
	eors	r2, r2, r3
	.loc 1 800 36
	ldr	r3, [sp, #28]
	lsrs	r3, r3, #8
	.loc 1 800 44
	uxtb	r3, r3
	.loc 1 800 29
	ldr	r1, .L57+16
	ldrb	r3, [r1, r3]	@ zero_extendqisi2
	.loc 1 800 53
	lsls	r3, r3, #8
	.loc 1 799 61
	eors	r2, r2, r3
	.loc 1 801 36
	ldr	r3, [sp, #16]
	lsrs	r3, r3, #16
	.loc 1 801 44
	uxtb	r3, r3
	.loc 1 801 29
	ldr	r1, .L57+16
	ldrb	r3, [r1, r3]	@ zero_extendqisi2
	.loc 1 801 53
	lsls	r3, r3, #16
	.loc 1 800 61
	eors	r2, r2, r3
	.loc 1 802 44
	ldr	r3, [sp, #20]
	lsrs	r3, r3, #24
	.loc 1 802 29
	ldr	r1, .L57+16
	ldrb	r3, [r1, r3]	@ zero_extendqisi2
	.loc 1 802 53
	lsls	r3, r3, #24
	.loc 1 798 8
	eors	r3, r3, r2
	str	r3, [sp, #40]
	.loc 1 804 13
	ldr	r3, [sp, #48]
	adds	r2, r3, #4
	str	r2, [sp, #48]
	.loc 1 804 10
	ldr	r3, [r3]
	.loc 1 805 44
	ldr	r2, [sp, #20]
	uxtb	r2, r2
	.loc 1 805 29
	ldr	r1, .L57+16
	ldrb	r2, [r1, r2]	@ zero_extendqisi2
	.loc 1 804 16
	eors	r2, r2, r3
	.loc 1 806 36
	ldr	r3, [sp, #24]
	lsrs	r3, r3, #8
	.loc 1 806 44
	uxtb	r3, r3
	.loc 1 806 29
	ldr	r1, .L57+16
	ldrb	r3, [r1, r3]	@ zero_extendqisi2
	.loc 1 806 53
	lsls	r3, r3, #8
	.loc 1 805 61
	eors	r2, r2, r3
	.loc 1 807 36
	ldr	r3, [sp, #28]
	lsrs	r3, r3, #16
	.loc 1 807 44
	uxtb	r3, r3
	.loc 1 807 29
	ldr	r1, .L57+16
	ldrb	r3, [r1, r3]	@ zero_extendqisi2
	.loc 1 807 53
	lsls	r3, r3, #16
	.loc 1 806 61
	eors	r2, r2, r3
	.loc 1 808 44
	ldr	r3, [sp, #16]
	lsrs	r3, r3, #24
	.loc 1 808 29
	ldr	r1, .L57+16
	ldrb	r3, [r1, r3]	@ zero_extendqisi2
	.loc 1 808 53
	lsls	r3, r3, #24
	.loc 1 804 8
	eors	r3, r3, r2
	str	r3, [sp, #36]
	.loc 1 810 13
	ldr	r3, [sp, #48]
	adds	r2, r3, #4
	str	r2, [sp, #48]
	.loc 1 810 10
	ldr	r3, [r3]
	.loc 1 811 44
	ldr	r2, [sp, #16]
	uxtb	r2, r2
	.loc 1 811 29
	ldr	r1, .L57+16
	ldrb	r2, [r1, r2]	@ zero_extendqisi2
	.loc 1 810 16
	eors	r2, r2, r3
	.loc 1 812 36
	ldr	r3, [sp, #20]
	lsrs	r3, r3, #8
	.loc 1 812 44
	uxtb	r3, r3
	.loc 1 812 29
	ldr	r1, .L57+16
	ldrb	r3, [r1, r3]	@ zero_extendqisi2
	.loc 1 812 53
	lsls	r3, r3, #8
	.loc 1 811 61
	eors	r2, r2, r3
	.loc 1 813 36
	ldr	r3, [sp, #24]
	lsrs	r3, r3, #16
	.loc 1 813 44
	uxtb	r3, r3
	.loc 1 813 29
	ldr	r1, .L57+16
	ldrb	r3, [r1, r3]	@ zero_extendqisi2
	.loc 1 813 53
	lsls	r3, r3, #16
	.loc 1 812 61
	eors	r2, r2, r3
	.loc 1 814 44
	ldr	r3, [sp, #28]
	lsrs	r3, r3, #24
	.loc 1 814 29
	ldr	r1, .L57+16
	ldrb	r3, [r1, r3]	@ zero_extendqisi2
	.loc 1 814 53
	lsls	r3, r3, #24
	.loc 1 810 8
	eors	r3, r3, r2
	str	r3, [sp, #32]
	.loc 1 816 5
	ldr	r3, [sp, #44]
	uxtb	r2, r3
	ldr	r3, [sp, #4]
	strb	r2, [r3]
	ldr	r3, [sp, #44]
	lsrs	r2, r3, #8
	ldr	r3, [sp, #4]
	adds	r3, r3, #1
	uxtb	r2, r2
	strb	r2, [r3]
	ldr	r3, [sp, #44]
	lsrs	r2, r3, #16
	ldr	r3, [sp, #4]
	adds	r3, r3, #2
	uxtb	r2, r2
	strb	r2, [r3]
	ldr	r3, [sp, #44]
	lsrs	r2, r3, #24
	ldr	r3, [sp, #4]
	adds	r3, r3, #3
	uxtb	r2, r2
	strb	r2, [r3]
	.loc 1 817 5
	ldr	r3, [sp, #4]
	adds	r3, r3, #4
	ldr	r2, [sp, #40]
	uxtb	r2, r2
	strb	r2, [r3]
	ldr	r3, [sp, #40]
	lsrs	r2, r3, #8
	ldr	r3, [sp, #4]
	adds	r3, r3, #5
	uxtb	r2, r2
	strb	r2, [r3]
	ldr	r3, [sp, #40]
	lsrs	r2, r3, #16
	ldr	r3, [sp, #4]
	adds	r3, r3, #6
	uxtb	r2, r2
	strb	r2, [r3]
	ldr	r3, [sp, #40]
	lsrs	r2, r3, #24
	ldr	r3, [sp, #4]
	adds	r3, r3, #7
	uxtb	r2, r2
	strb	r2, [r3]
	.loc 1 818 5
	ldr	r3, [sp, #4]
	adds	r3, r3, #8
	ldr	r2, [sp, #36]
	uxtb	r2, r2
	strb	r2, [r3]
	ldr	r3, [sp, #36]
	lsrs	r2, r3, #8
	ldr	r3, [sp, #4]
	adds	r3, r3, #9
	uxtb	r2, r2
	strb	r2, [r3]
	ldr	r3, [sp, #36]
	lsrs	r2, r3, #16
	ldr	r3, [sp, #4]
	adds	r3, r3, #10
	uxtb	r2, r2
	strb	r2, [r3]
	ldr	r3, [sp, #36]
	lsrs	r2, r3, #24
	ldr	r3, [sp, #4]
	adds	r3, r3, #11
	uxtb	r2, r2
	strb	r2, [r3]
	.loc 1 819 5
	ldr	r3, [sp, #4]
	adds	r3, r3, #12
	ldr	r2, [sp, #32]
	uxtb	r2, r2
	strb	r2, [r3]
	ldr	r3, [sp, #32]
	lsrs	r2, r3, #8
	ldr	r3, [sp, #4]
	adds	r3, r3, #13
	uxtb	r2, r2
	strb	r2, [r3]
	ldr	r3, [sp, #32]
	lsrs	r2, r3, #16
	ldr	r3, [sp, #4]
	adds	r3, r3, #14
	uxtb	r2, r2
	strb	r2, [r3]
	ldr	r3, [sp, #32]
	lsrs	r2, r3, #24
	ldr	r3, [sp, #4]
	adds	r3, r3, #15
	uxtb	r2, r2
	strb	r2, [r3]
	.loc 1 820 1
	nop
	add	sp, sp, #56
.LCFI16:
	@ sp needed
	bx	lr
.L58:
	.align	2
.L57:
	.word	RT0
	.word	RT1
	.word	RT2
	.word	RT3
	.word	RSb
.LFE6:
	.size	mbedtls_aes_decrypt, .-mbedtls_aes_decrypt
	.section	.text.mbedtls_aes_crypt_ecb,"ax",%progbits
	.align	1
	.global	mbedtls_aes_crypt_ecb
	.syntax unified
	.thumb
	.thumb_func
	.fpu fpv4-sp-d16
	.type	mbedtls_aes_crypt_ecb, %function
mbedtls_aes_crypt_ecb:
.LFB7:
	.loc 1 830 1
	@ args = 0, pretend = 0, frame = 16
	@ frame_needed = 0, uses_anonymous_args = 0
	push	{lr}
.LCFI17:
	sub	sp, sp, #20
.LCFI18:
	str	r0, [sp, #12]
	str	r1, [sp, #8]
	str	r2, [sp, #4]
	str	r3, [sp]
	.loc 1 848 7
	ldr	r3, [sp, #8]
	cmp	r3, #1
	bne	.L60
	.loc 1 849 9
	ldr	r2, [sp]
	ldr	r1, [sp, #4]
	ldr	r0, [sp, #12]
	bl	mbedtls_aes_encrypt
	b	.L61
.L60:
	.loc 1 851 9
	ldr	r2, [sp]
	ldr	r1, [sp, #4]
	ldr	r0, [sp, #12]
	bl	mbedtls_aes_decrypt
.L61:
	.loc 1 853 11
	movs	r3, #0
	.loc 1 854 1
	mov	r0, r3
	add	sp, sp, #20
.LCFI19:
	@ sp needed
	ldr	pc, [sp], #4
.LFE7:
	.size	mbedtls_aes_crypt_ecb, .-mbedtls_aes_crypt_ecb
	.section	.text.mbedtls_aes_crypt_cbc,"ax",%progbits
	.align	1
	.global	mbedtls_aes_crypt_cbc
	.syntax unified
	.thumb
	.thumb_func
	.fpu fpv4-sp-d16
	.type	mbedtls_aes_crypt_cbc, %function
mbedtls_aes_crypt_cbc:
.LFB8:
	.loc 1 866 1
	@ args = 8, pretend = 0, frame = 40
	@ frame_needed = 0, uses_anonymous_args = 0
	push	{r4, r5, lr}
.LCFI20:
	sub	sp, sp, #44
.LCFI21:
	str	r0, [sp, #12]
	str	r1, [sp, #8]
	str	r2, [sp, #4]
	str	r3, [sp]
	.loc 1 870 16
	ldr	r3, [sp, #4]
	and	r3, r3, #15
	.loc 1 870 7
	cmp	r3, #0
	beq	.L64
	.loc 1 871 15
	mvn	r3, #33
	b	.L76
.L64:
	.loc 1 885 7
	ldr	r3, [sp, #8]
	cmp	r3, #0
	bne	.L72
	.loc 1 887 14
	b	.L67
.L70:
	.loc 1 889 13
	ldr	r3, [sp, #56]
	add	r4, sp, #20
	ldr	r0, [r3]	@ unaligned
	ldr	r1, [r3, #4]	@ unaligned
	ldr	r2, [r3, #8]	@ unaligned
	ldr	r3, [r3, #12]	@ unaligned
	stmia	r4!, {r0, r1, r2, r3}
	.loc 1 890 13
	ldr	r3, [sp, #60]
	ldr	r2, [sp, #56]
	ldr	r1, [sp, #8]
	ldr	r0, [sp, #12]
	bl	mbedtls_aes_crypt_ecb
	.loc 1 892 20
	movs	r3, #0
	str	r3, [sp, #36]
	.loc 1 892 13
	b	.L68
.L69:
	.loc 1 893 52 discriminator 3
	ldr	r3, [sp, #36]
	ldr	r2, [sp, #60]
	add	r3, r3, r2
	ldrb	r1, [r3]	@ zero_extendqisi2
	.loc 1 893 60 discriminator 3
	ldr	r3, [sp, #36]
	ldr	r2, [sp]
	add	r3, r3, r2
	ldrb	r2, [r3]	@ zero_extendqisi2
	.loc 1 893 23 discriminator 3
	ldr	r3, [sp, #36]
	ldr	r0, [sp, #60]
	add	r3, r3, r0
	.loc 1 893 29 discriminator 3
	eors	r2, r2, r1
	uxtb	r2, r2
	.loc 1 893 27 discriminator 3
	strb	r2, [r3]
	.loc 1 892 34 discriminator 3
	ldr	r3, [sp, #36]
	adds	r3, r3, #1
	str	r3, [sp, #36]
.L68:
	.loc 1 892 13 discriminator 1
	ldr	r3, [sp, #36]
	cmp	r3, #15
	ble	.L69
	.loc 1 895 13
	ldr	r3, [sp]
	mov	r5, r3
	add	r4, sp, #20
	ldmia	r4!, {r0, r1, r2, r3}
	str	r0, [r5]	@ unaligned
	str	r1, [r5, #4]	@ unaligned
	str	r2, [r5, #8]	@ unaligned
	str	r3, [r5, #12]	@ unaligned
	.loc 1 897 20
	ldr	r3, [sp, #56]
	adds	r3, r3, #16
	str	r3, [sp, #56]
	.loc 1 898 20
	ldr	r3, [sp, #60]
	adds	r3, r3, #16
	str	r3, [sp, #60]
	.loc 1 899 20
	ldr	r3, [sp, #4]
	subs	r3, r3, #16
	str	r3, [sp, #4]
.L67:
	.loc 1 887 14
	ldr	r3, [sp, #4]
	cmp	r3, #0
	bne	.L70
	b	.L71
.L75:
	.loc 1 906 20
	movs	r3, #0
	str	r3, [sp, #36]
	.loc 1 906 13
	b	.L73
.L74:
	.loc 1 907 51 discriminator 3
	ldr	r3, [sp, #36]
	ldr	r2, [sp, #56]
	add	r3, r3, r2
	ldrb	r1, [r3]	@ zero_extendqisi2
	.loc 1 907 59 discriminator 3
	ldr	r3, [sp, #36]
	ldr	r2, [sp]
	add	r3, r3, r2
	ldrb	r2, [r3]	@ zero_extendqisi2
	.loc 1 907 23 discriminator 3
	ldr	r3, [sp, #36]
	ldr	r0, [sp, #60]
	add	r3, r3, r0
	.loc 1 907 29 discriminator 3
	eors	r2, r2, r1
	uxtb	r2, r2
	.loc 1 907 27 discriminator 3
	strb	r2, [r3]
	.loc 1 906 34 discriminator 3
	ldr	r3, [sp, #36]
	adds	r3, r3, #1
	str	r3, [sp, #36]
.L73:
	.loc 1 906 13 discriminator 1
	ldr	r3, [sp, #36]
	cmp	r3, #15
	ble	.L74
	.loc 1 909 13
	ldr	r3, [sp, #60]
	ldr	r2, [sp, #60]
	ldr	r1, [sp, #8]
	ldr	r0, [sp, #12]
	bl	mbedtls_aes_crypt_ecb
	.loc 1 910 13
	movs	r2, #16
	ldr	r1, [sp, #60]
	ldr	r0, [sp]
	bl	memcpy
	.loc 1 912 20
	ldr	r3, [sp, #56]
	adds	r3, r3, #16
	str	r3, [sp, #56]
	.loc 1 913 20
	ldr	r3, [sp, #60]
	adds	r3, r3, #16
	str	r3, [sp, #60]
	.loc 1 914 20
	ldr	r3, [sp, #4]
	subs	r3, r3, #16
	str	r3, [sp, #4]
.L72:
	.loc 1 904 14
	ldr	r3, [sp, #4]
	cmp	r3, #0
	bne	.L75
.L71:
	.loc 1 918 11
	movs	r3, #0
.L76:
	.loc 1 919 1 discriminator 1
	mov	r0, r3
	add	sp, sp, #44
.LCFI22:
	@ sp needed
	pop	{r4, r5, pc}
.LFE8:
	.size	mbedtls_aes_crypt_cbc, .-mbedtls_aes_crypt_cbc
	.section	.text.mbedtls_aes_crypt_cfb128,"ax",%progbits
	.align	1
	.global	mbedtls_aes_crypt_cfb128
	.syntax unified
	.thumb
	.thumb_func
	.fpu fpv4-sp-d16
	.type	mbedtls_aes_crypt_cfb128, %function
mbedtls_aes_crypt_cfb128:
.LFB9:
	.loc 1 933 1
	@ args = 12, pretend = 0, frame = 24
	@ frame_needed = 0, uses_anonymous_args = 0
	push	{lr}
.LCFI23:
	sub	sp, sp, #28
.LCFI24:
	str	r0, [sp, #12]
	str	r1, [sp, #8]
	str	r2, [sp, #4]
	str	r3, [sp]
	.loc 1 935 12
	ldr	r3, [sp]
	ldr	r3, [r3]
	str	r3, [sp, #20]
	.loc 1 937 7
	ldr	r3, [sp, #8]
	cmp	r3, #0
	bne	.L83
	.loc 1 939 14
	b	.L79
.L81:
	.loc 1 941 15
	ldr	r3, [sp, #20]
	cmp	r3, #0
	bne	.L80
	.loc 1 942 17
	ldr	r3, [sp, #32]
	ldr	r2, [sp, #32]
	movs	r1, #1
	ldr	r0, [sp, #12]
	bl	mbedtls_aes_crypt_ecb
.L80:
	.loc 1 944 23
	ldr	r3, [sp, #36]
	adds	r2, r3, #1
	str	r2, [sp, #36]
	.loc 1 944 17
	ldrb	r3, [r3]	@ zero_extendqisi2
	.loc 1 944 15
	str	r3, [sp, #16]
	.loc 1 945 44
	ldr	r3, [sp, #16]
	sxtb	r2, r3
	.loc 1 945 48
	ldr	r1, [sp, #32]
	ldr	r3, [sp, #20]
	add	r3, r3, r1
	ldrb	r3, [r3]	@ zero_extendqisi2
	sxtb	r3, r3
	.loc 1 945 44
	eors	r3, r3, r2
	sxtb	r1, r3
	.loc 1 945 20
	ldr	r3, [sp, #40]
	adds	r2, r3, #1
	str	r2, [sp, #40]
	.loc 1 945 25
	uxtb	r2, r1
	.loc 1 945 23
	strb	r2, [r3]
	.loc 1 946 15
	ldr	r2, [sp, #32]
	ldr	r3, [sp, #20]
	add	r3, r3, r2
	.loc 1 946 21
	ldr	r2, [sp, #16]
	uxtb	r2, r2
	.loc 1 946 19
	strb	r2, [r3]
	.loc 1 948 21
	ldr	r3, [sp, #20]
	adds	r3, r3, #1
	.loc 1 948 15
	and	r3, r3, #15
	str	r3, [sp, #20]
.L79:
	.loc 1 939 22
	ldr	r3, [sp, #4]
	subs	r2, r3, #1
	str	r2, [sp, #4]
	.loc 1 939 14
	cmp	r3, #0
	bne	.L81
	b	.L82
.L85:
	.loc 1 955 15
	ldr	r3, [sp, #20]
	cmp	r3, #0
	bne	.L84
	.loc 1 956 17
	ldr	r3, [sp, #32]
	ldr	r2, [sp, #32]
	movs	r1, #1
	ldr	r0, [sp, #12]
	bl	mbedtls_aes_crypt_ecb
.L84:
	.loc 1 958 52
	ldr	r2, [sp, #32]
	ldr	r3, [sp, #20]
	add	r3, r3, r2
	ldrb	r1, [r3]	@ zero_extendqisi2
	.loc 1 958 64
	ldr	r3, [sp, #36]
	adds	r2, r3, #1
	str	r2, [sp, #36]
	.loc 1 958 58
	ldrb	r2, [r3]	@ zero_extendqisi2
	.loc 1 958 28
	ldr	r3, [sp, #40]
	adds	r0, r3, #1
	str	r0, [sp, #40]
	.loc 1 958 33
	eors	r2, r2, r1
	uxtb	r2, r2
	.loc 1 958 31
	strb	r2, [r3]
	.loc 1 958 15
	ldr	r1, [sp, #32]
	ldr	r2, [sp, #20]
	add	r2, r2, r1
	.loc 1 958 21
	ldrb	r3, [r3]	@ zero_extendqisi2
	.loc 1 958 19
	strb	r3, [r2]
	.loc 1 960 21
	ldr	r3, [sp, #20]
	adds	r3, r3, #1
	.loc 1 960 15
	and	r3, r3, #15
	str	r3, [sp, #20]
.L83:
	.loc 1 953 22
	ldr	r3, [sp, #4]
	subs	r2, r3, #1
	str	r2, [sp, #4]
	.loc 1 953 14
	cmp	r3, #0
	bne	.L85
.L82:
	.loc 1 964 13
	ldr	r3, [sp]
	ldr	r2, [sp, #20]
	str	r2, [r3]
	.loc 1 966 11
	movs	r3, #0
	.loc 1 967 1
	mov	r0, r3
	add	sp, sp, #28
.LCFI25:
	@ sp needed
	ldr	pc, [sp], #4
.LFE9:
	.size	mbedtls_aes_crypt_cfb128, .-mbedtls_aes_crypt_cfb128
	.section	.text.mbedtls_aes_crypt_cfb8,"ax",%progbits
	.align	1
	.global	mbedtls_aes_crypt_cfb8
	.syntax unified
	.thumb
	.thumb_func
	.fpu fpv4-sp-d16
	.type	mbedtls_aes_crypt_cfb8, %function
mbedtls_aes_crypt_cfb8:
.LFB10:
	.loc 1 978 1
	@ args = 8, pretend = 0, frame = 40
	@ frame_needed = 0, uses_anonymous_args = 0
	push	{lr}
.LCFI26:
	sub	sp, sp, #44
.LCFI27:
	str	r0, [sp, #12]
	str	r1, [sp, #8]
	str	r2, [sp, #4]
	str	r3, [sp]
	.loc 1 982 10
	b	.L88
.L91:
	.loc 1 984 9
	add	r3, sp, #20
	movs	r2, #16
	ldr	r1, [sp]
	mov	r0, r3
	bl	memcpy
	.loc 1 985 9
	ldr	r3, [sp]
	ldr	r2, [sp]
	movs	r1, #1
	ldr	r0, [sp, #12]
	bl	mbedtls_aes_crypt_ecb
	.loc 1 987 11
	ldr	r3, [sp, #8]
	cmp	r3, #0
	bne	.L89
	.loc 1 988 22
	ldr	r3, [sp, #48]
	ldrb	r3, [r3]	@ zero_extendqisi2
	.loc 1 988 20
	strb	r3, [sp, #36]
.L89:
	.loc 1 990 44
	ldr	r3, [sp]
	ldrb	r1, [r3]	@ zero_extendqisi2
	.loc 1 990 56
	ldr	r3, [sp, #48]
	adds	r2, r3, #1
	str	r2, [sp, #48]
	.loc 1 990 50
	ldrb	r2, [r3]	@ zero_extendqisi2
	.loc 1 990 20
	ldr	r3, [sp, #52]
	adds	r0, r3, #1
	str	r0, [sp, #52]
	.loc 1 990 25
	eors	r2, r2, r1
	uxtb	r2, r2
	.loc 1 990 23
	strb	r2, [r3]
	.loc 1 990 11
	ldrb	r3, [r3]
	strb	r3, [sp, #39]
	.loc 1 992 11
	ldr	r3, [sp, #8]
	cmp	r3, #1
	bne	.L90
	.loc 1 993 20
	ldrb	r3, [sp, #39]
	strb	r3, [sp, #36]
.L90:
	.loc 1 995 9
	add	r3, sp, #20
	adds	r3, r3, #1
	movs	r2, #16
	mov	r1, r3
	ldr	r0, [sp]
	bl	memcpy
.L88:
	.loc 1 982 18
	ldr	r3, [sp, #4]
	subs	r2, r3, #1
	str	r2, [sp, #4]
	.loc 1 982 10
	cmp	r3, #0
	bne	.L91
	.loc 1 998 11
	movs	r3, #0
	.loc 1 999 1
	mov	r0, r3
	add	sp, sp, #44
.LCFI28:
	@ sp needed
	ldr	pc, [sp], #4
.LFE10:
	.size	mbedtls_aes_crypt_cfb8, .-mbedtls_aes_crypt_cfb8
	.section	.text.mbedtls_aes_crypt_ctr,"ax",%progbits
	.align	1
	.global	mbedtls_aes_crypt_ctr
	.syntax unified
	.thumb
	.thumb_func
	.fpu fpv4-sp-d16
	.type	mbedtls_aes_crypt_ctr, %function
mbedtls_aes_crypt_ctr:
.LFB11:
	.loc 1 1013 1
	@ args = 12, pretend = 0, frame = 32
	@ frame_needed = 0, uses_anonymous_args = 0
	push	{lr}
.LCFI29:
	sub	sp, sp, #36
.LCFI30:
	str	r0, [sp, #12]
	str	r1, [sp, #8]
	str	r2, [sp, #4]
	str	r3, [sp]
	.loc 1 1015 12
	ldr	r3, [sp, #4]
	ldr	r3, [r3]
	str	r3, [sp, #24]
	.loc 1 1017 10
	b	.L94
.L99:
	.loc 1 1019 11
	ldr	r3, [sp, #24]
	cmp	r3, #0
	bne	.L95
	.loc 1 1020 13
	ldr	r3, [sp, #40]
	ldr	r2, [sp]
	movs	r1, #1
	ldr	r0, [sp, #12]
	bl	mbedtls_aes_crypt_ecb
	.loc 1 1022 20
	movs	r3, #16
	str	r3, [sp, #28]
	.loc 1 1022 13
	b	.L96
.L98:
	.loc 1 1023 36
	ldr	r3, [sp, #28]
	subs	r3, r3, #1
	ldr	r2, [sp]
	add	r3, r3, r2
	ldrb	r2, [r3]	@ zero_extendqisi2
	.loc 1 1023 21
	adds	r2, r2, #1
	uxtb	r2, r2
	.loc 1 1023 19
	strb	r2, [r3]
	.loc 1 1023 36
	ldrb	r3, [r3]	@ zero_extendqisi2
	.loc 1 1023 19
	cmp	r3, #0
	bne	.L101
	.loc 1 1022 34 discriminator 2
	ldr	r3, [sp, #28]
	subs	r3, r3, #1
	str	r3, [sp, #28]
.L96:
	.loc 1 1022 13 discriminator 1
	ldr	r3, [sp, #28]
	cmp	r3, #0
	bgt	.L98
	b	.L95
.L101:
	.loc 1 1024 21
	nop
.L95:
	.loc 1 1026 19
	ldr	r3, [sp, #44]
	adds	r2, r3, #1
	str	r2, [sp, #44]
	.loc 1 1026 13
	ldrb	r3, [r3]	@ zero_extendqisi2
	.loc 1 1026 11
	str	r3, [sp, #20]
	.loc 1 1027 40
	ldr	r3, [sp, #20]
	sxtb	r2, r3
	.loc 1 1027 54
	ldr	r1, [sp, #40]
	ldr	r3, [sp, #24]
	add	r3, r3, r1
	ldrb	r3, [r3]	@ zero_extendqisi2
	sxtb	r3, r3
	.loc 1 1027 40
	eors	r3, r3, r2
	sxtb	r1, r3
	.loc 1 1027 16
	ldr	r3, [sp, #48]
	adds	r2, r3, #1
	str	r2, [sp, #48]
	.loc 1 1027 21
	uxtb	r2, r1
	.loc 1 1027 19
	strb	r2, [r3]
	.loc 1 1029 17
	ldr	r3, [sp, #24]
	adds	r3, r3, #1
	.loc 1 1029 11
	and	r3, r3, #15
	str	r3, [sp, #24]
.L94:
	.loc 1 1017 18
	ldr	r3, [sp, #8]
	subs	r2, r3, #1
	str	r2, [sp, #8]
	.loc 1 1017 10
	cmp	r3, #0
	bne	.L99
	.loc 1 1032 13
	ldr	r3, [sp, #4]
	ldr	r2, [sp, #24]
	str	r2, [r3]
	.loc 1 1034 11
	movs	r3, #0
	.loc 1 1035 1
	mov	r0, r3
	add	sp, sp, #36
.LCFI31:
	@ sp needed
	ldr	pc, [sp], #4
.LFE11:
	.size	mbedtls_aes_crypt_ctr, .-mbedtls_aes_crypt_ctr
	.section	.debug_frame,"",%progbits
.Lframe0:
	.4byte	.LECIE0-.LSCIE0
.LSCIE0:
	.4byte	0xffffffff
	.byte	0x3
	.ascii	"\000"
	.uleb128 0x1
	.sleb128 -4
	.uleb128 0xe
	.byte	0xc
	.uleb128 0xd
	.uleb128 0
	.align	2
.LECIE0:
.LSFDE0:
	.4byte	.LEFDE0-.LASFDE0
.LASFDE0:
	.4byte	.Lframe0
	.4byte	.LFB0
	.4byte	.LFE0-.LFB0
	.byte	0x4
	.4byte	.LCFI0-.LFB0
	.byte	0xe
	.uleb128 0x10
	.byte	0x4
	.4byte	.LCFI1-.LCFI0
	.byte	0xe
	.uleb128 0
	.align	2
.LEFDE0:
.LSFDE2:
	.4byte	.LEFDE2-.LASFDE2
.LASFDE2:
	.4byte	.Lframe0
	.4byte	.LFB1
	.4byte	.LFE1-.LFB1
	.byte	0x4
	.4byte	.LCFI2-.LFB1
	.byte	0xe
	.uleb128 0x4
	.byte	0x8e
	.uleb128 0x1
	.byte	0x4
	.4byte	.LCFI3-.LCFI2
	.byte	0xe
	.uleb128 0x10
	.byte	0x4
	.4byte	.LCFI4-.LCFI3
	.byte	0xe
	.uleb128 0x4
	.align	2
.LEFDE2:
.LSFDE4:
	.4byte	.LEFDE4-.LASFDE4
.LASFDE4:
	.4byte	.Lframe0
	.4byte	.LFB2
	.4byte	.LFE2-.LFB2
	.byte	0x4
	.4byte	.LCFI5-.LFB2
	.byte	0xe
	.uleb128 0x4
	.byte	0x8e
	.uleb128 0x1
	.byte	0x4
	.4byte	.LCFI6-.LCFI5
	.byte	0xe
	.uleb128 0x10
	.byte	0x4
	.4byte	.LCFI7-.LCFI6
	.byte	0xe
	.uleb128 0x4
	.align	2
.LEFDE4:
.LSFDE6:
	.4byte	.LEFDE6-.LASFDE6
.LASFDE6:
	.4byte	.Lframe0
	.4byte	.LFB3
	.4byte	.LFE3-.LFB3
	.byte	0x4
	.4byte	.LCFI8-.LFB3
	.byte	0xe
	.uleb128 0x18
	.byte	0x4
	.4byte	.LCFI9-.LCFI8
	.byte	0xe
	.uleb128 0
	.align	2
.LEFDE6:
.LSFDE8:
	.4byte	.LEFDE8-.LASFDE8
.LASFDE8:
	.4byte	.Lframe0
	.4byte	.LFB4
	.4byte	.LFE4-.LFB4
	.byte	0x4
	.4byte	.LCFI10-.LFB4
	.byte	0xe
	.uleb128 0x4
	.byte	0x8e
	.uleb128 0x1
	.byte	0x4
	.4byte	.LCFI11-.LCFI10
	.byte	0xe
	.uleb128 0x148
	.byte	0x4
	.4byte	.LCFI12-.LCFI11
	.byte	0xe
	.uleb128 0x4
	.align	2
.LEFDE8:
.LSFDE10:
	.4byte	.LEFDE10-.LASFDE10
.LASFDE10:
	.4byte	.Lframe0
	.4byte	.LFB5
	.4byte	.LFE5-.LFB5
	.byte	0x4
	.4byte	.LCFI13-.LFB5
	.byte	0xe
	.uleb128 0x38
	.byte	0x4
	.4byte	.LCFI14-.LCFI13
	.byte	0xe
	.uleb128 0
	.align	2
.LEFDE10:
.LSFDE12:
	.4byte	.LEFDE12-.LASFDE12
.LASFDE12:
	.4byte	.Lframe0
	.4byte	.LFB6
	.4byte	.LFE6-.LFB6
	.byte	0x4
	.4byte	.LCFI15-.LFB6
	.byte	0xe
	.uleb128 0x38
	.byte	0x4
	.4byte	.LCFI16-.LCFI15
	.byte	0xe
	.uleb128 0
	.align	2
.LEFDE12:
.LSFDE14:
	.4byte	.LEFDE14-.LASFDE14
.LASFDE14:
	.4byte	.Lframe0
	.4byte	.LFB7
	.4byte	.LFE7-.LFB7
	.byte	0x4
	.4byte	.LCFI17-.LFB7
	.byte	0xe
	.uleb128 0x4
	.byte	0x8e
	.uleb128 0x1
	.byte	0x4
	.4byte	.LCFI18-.LCFI17
	.byte	0xe
	.uleb128 0x18
	.byte	0x4
	.4byte	.LCFI19-.LCFI18
	.byte	0xe
	.uleb128 0x4
	.align	2
.LEFDE14:
.LSFDE16:
	.4byte	.LEFDE16-.LASFDE16
.LASFDE16:
	.4byte	.Lframe0
	.4byte	.LFB8
	.4byte	.LFE8-.LFB8
	.byte	0x4
	.4byte	.LCFI20-.LFB8
	.byte	0xe
	.uleb128 0xc
	.byte	0x84
	.uleb128 0x3
	.byte	0x85
	.uleb128 0x2
	.byte	0x8e
	.uleb128 0x1
	.byte	0x4
	.4byte	.LCFI21-.LCFI20
	.byte	0xe
	.uleb128 0x38
	.byte	0x4
	.4byte	.LCFI22-.LCFI21
	.byte	0xe
	.uleb128 0xc
	.align	2
.LEFDE16:
.LSFDE18:
	.4byte	.LEFDE18-.LASFDE18
.LASFDE18:
	.4byte	.Lframe0
	.4byte	.LFB9
	.4byte	.LFE9-.LFB9
	.byte	0x4
	.4byte	.LCFI23-.LFB9
	.byte	0xe
	.uleb128 0x4
	.byte	0x8e
	.uleb128 0x1
	.byte	0x4
	.4byte	.LCFI24-.LCFI23
	.byte	0xe
	.uleb128 0x20
	.byte	0x4
	.4byte	.LCFI25-.LCFI24
	.byte	0xe
	.uleb128 0x4
	.align	2
.LEFDE18:
.LSFDE20:
	.4byte	.LEFDE20-.LASFDE20
.LASFDE20:
	.4byte	.Lframe0
	.4byte	.LFB10
	.4byte	.LFE10-.LFB10
	.byte	0x4
	.4byte	.LCFI26-.LFB10
	.byte	0xe
	.uleb128 0x4
	.byte	0x8e
	.uleb128 0x1
	.byte	0x4
	.4byte	.LCFI27-.LCFI26
	.byte	0xe
	.uleb128 0x30
	.byte	0x4
	.4byte	.LCFI28-.LCFI27
	.byte	0xe
	.uleb128 0x4
	.align	2
.LEFDE20:
.LSFDE22:
	.4byte	.LEFDE22-.LASFDE22
.LASFDE22:
	.4byte	.Lframe0
	.4byte	.LFB11
	.4byte	.LFE11-.LFB11
	.byte	0x4
	.4byte	.LCFI29-.LFB11
	.byte	0xe
	.uleb128 0x4
	.byte	0x8e
	.uleb128 0x1
	.byte	0x4
	.4byte	.LCFI30-.LCFI29
	.byte	0xe
	.uleb128 0x28
	.byte	0x4
	.4byte	.LCFI31-.LCFI30
	.byte	0xe
	.uleb128 0x4
	.align	2
.LEFDE22:
	.text
.Letext0:
	.file 2 "/mnt2/segger_embedded_studio_for_arm_5.64/include/string.h"
	.file 3 "/mnt2/segger_embedded_studio_for_arm_5.64/include/stdint.h"
	.file 4 "../../nRF5_SDK_15.3/external/mbedtls/include/mbedtls/aes.h"